	.file	"Calculator.c"
__SP_H__ = 0x3e
__SP_L__ = 0x3d
__SREG__ = 0x3f
__tmp_reg__ = 0
__zero_reg__ = 1
	.text
.Ltext0:
	.cfi_sections	.debug_frame
	.section	.rodata.str1.1,"aMS",@progbits,1
.LC0:
	.string	"Hello"
	.section	.text.Calculator_Init,"ax",@progbits
.global	Calculator_Init
	.type	Calculator_Init, @function
Calculator_Init:
.LFB6:
	.file 1 "../APP/Calculator/Calculator.c"
	.loc 1 26 0
	.cfi_startproc
	push r16
.LCFI0:
	.cfi_def_cfa_offset 3
	.cfi_offset 16, -2
	push r17
.LCFI1:
	.cfi_def_cfa_offset 4
	.cfi_offset 17, -3
/* prologue: function */
/* frame size = 0 */
/* stack size = 2 */
.L__stack_usage = 2
	.loc 1 27 0
	call LCD_Init
.LVL0:
	.loc 1 28 0
	lds r16,keypad1
	lds r17,keypad1+1
	lds r18,keypad1+2
	lds r19,keypad1+3
	lds r20,keypad1+4
	lds r21,keypad1+5
	lds r22,keypad1+6
	lds r23,keypad1+7
	lds r24,keypad1+8
	lds r25,keypad1+9
	call keypad_Init
.LVL1:
	.loc 1 29 0
	lds r22,LED1
	lds r23,LED1+1
	lds r24,LED1+2
	lds r25,LED1+3
	call Led_Start
.LVL2:
	.loc 1 30 0
	ldi r24,lo8(.LC0)
	ldi r25,hi8(.LC0)
	call Send_String_LCD
.LVL3:
.LBB6:
.LBB7:
	.file 2 "c:\\program files (x86)\\atmel\\atmel toolchain\\avr8 gcc\\native\\3.4.1061\\avr8-gnu-toolchain\\avr\\include\\util\\delay.h"
	.loc 2 163 0
	ldi r18,lo8(319999)
	ldi r24,hi8(319999)
	ldi r25,hlo8(319999)
	1: subi r18,1
	sbci r24,0
	sbci r25,0
	brne 1b
	rjmp .
	nop
/* epilogue start */
.LBE7:
.LBE6:
	.loc 1 33 0
	pop r17
	pop r16
	.loc 1 32 0
	jmp Clear_LCD
.LVL4:
	.cfi_endproc
.LFE6:
	.size	Calculator_Init, .-Calculator_Init
	.section	.text.Calculator_operation,"ax",@progbits
.global	Calculator_operation
	.type	Calculator_operation, @function
Calculator_operation:
.LFB7:
	.loc 1 35 0
	.cfi_startproc
	push r16
.LCFI2:
	.cfi_def_cfa_offset 3
	.cfi_offset 16, -2
	push r17
.LCFI3:
	.cfi_def_cfa_offset 4
	.cfi_offset 17, -3
/* prologue: function */
/* frame size = 0 */
/* stack size = 2 */
.L__stack_usage = 2
	.loc 1 36 0
	lds r16,keypad1
	lds r17,keypad1+1
	lds r18,keypad1+2
	lds r19,keypad1+3
	lds r20,keypad1+4
	lds r21,keypad1+5
	lds r22,keypad1+6
	lds r23,keypad1+7
	lds r24,keypad1+8
	lds r25,keypad1+9
	call keypad_Read
.LVL5:
	sts Data_Enter,r24
	.loc 1 37 0
	cpi r24,lo8(50)
	breq .L5
/* epilogue start */
	.loc 1 43 0
	pop r17
	pop r16
	ret
.L5:
	.loc 1 39 0
	lds r22,LED1
	lds r23,LED1+1
	lds r24,LED1+2
	lds r25,LED1+3
	call Led_Toggle
.LVL6:
.LBB8:
.LBB9:
	.loc 2 163 0
	ldi r18,lo8(319999)
	ldi r24,hi8(319999)
	ldi r25,hlo8(319999)
	1: subi r18,1
	sbci r24,0
	sbci r25,0
	brne 1b
	rjmp .
	nop
.LBE9:
.LBE8:
	.loc 1 41 0
	ldi r24,lo8(50)
/* epilogue start */
	.loc 1 43 0
	pop r17
	pop r16
	.loc 1 41 0
	jmp Send_char_LCD
.LVL7:
	.cfi_endproc
.LFE7:
	.size	Calculator_operation, .-Calculator_operation
.global	Data_Enter
	.section	.bss.Data_Enter,"aw",@nobits
	.type	Data_Enter, @object
	.size	Data_Enter, 1
Data_Enter:
	.zero	1
.global	LED1
	.section	.data.LED1,"aw",@progbits
	.type	LED1, @object
	.size	LED1, 4
LED1:
	.word	54
	.byte	6
	.byte	0
.global	keypad1
	.section	.data.keypad1,"aw",@progbits
	.type	keypad1, @object
	.size	keypad1, 10
keypad1:
	.word	57
	.byte	0
	.byte	1
	.byte	2
	.byte	3
	.byte	4
	.byte	5
	.byte	6
	.byte	7
.global	Keypad_array
	.section	.data.Keypad_array,"aw",@progbits
	.type	Keypad_array, @object
	.size	Keypad_array, 16
Keypad_array:
	.byte	55
	.byte	56
	.byte	57
	.byte	65
	.byte	52
	.byte	53
	.byte	54
	.byte	66
	.byte	49
	.byte	50
	.byte	51
	.byte	67
	.byte	35
	.byte	48
	.byte	42
	.byte	68
	.text
.Letext0:
	.file 3 "../Services/STD_Types.h"
	.file 4 "../Services/AVR_32_Registers.h"
	.file 5 "../MCAL/DIO/GPIO.h"
	.file 6 "../HAL/Keypad/Keypad.h"
	.file 7 "../HAL/LED_File/LED.h"
	.file 8 "c:\\program files (x86)\\atmel\\atmel toolchain\\avr8 gcc\\native\\3.4.1061\\avr8-gnu-toolchain\\avr\\include\\stdint.h"
	.file 9 "../HAL/LCD_Screen/LCD.h"