	.file	"Direct_7-Segment.c"
__SP_H__ = 0x3e
__SP_L__ = 0x3d
__SREG__ = 0x3f
__tmp_reg__ = 0
__zero_reg__ = 1
	.text
.Ltext0:
	.cfi_sections	.debug_frame
	.section	.text.Seven_Seg_Init,"ax",@progbits
.global	Seven_Seg_Init
	.type	Seven_Seg_Init, @function
Seven_Seg_Init:
.LFB0:
	.file 1 "../HAL/Direct 7-Segment/Direct_7-Segment.c"
	.loc 1 9 0
	.cfi_startproc
.LVL0:
/* prologue: function */
/* frame size = 0 */
/* stack size = 0 */
.L__stack_usage = 0
	.loc 1 10 0
	ldi r22,lo8(-1)
	jmp GPIO_Port_Configuration
.LVL1:
	.cfi_endproc
.LFE0:
	.size	Seven_Seg_Init, .-Seven_Seg_Init
	.section	.rodata
.LC0:
	.byte	63
	.byte	6
	.byte	91
	.byte	79
	.byte	102
	.byte	109
	.byte	125
	.byte	71
	.byte	127
	.byte	111
	.section	.text.Seven_Seg_Write,"ax",@progbits
.global	Seven_Seg_Write
	.type	Seven_Seg_Write, @function
Seven_Seg_Write:
.LFB1:
	.loc 1 13 0
	.cfi_startproc
.LVL2:
	push r28
.LCFI0:
	.cfi_def_cfa_offset 3
	.cfi_offset 28, -2
	push r29
.LCFI1:
	.cfi_def_cfa_offset 4
	.cfi_offset 29, -3
	in r28,__SP_L__
	in r29,__SP_H__
.LCFI2:
	.cfi_def_cfa_register 28
	sbiw r28,10
.LCFI3:
	.cfi_def_cfa_offset 14
	in __tmp_reg__,__SREG__
	cli
	out __SP_H__,r29
	out __SREG__,__tmp_reg__
	out __SP_L__,r28
/* prologue: function */
/* frame size = 10 */
/* stack size = 12 */
.L__stack_usage = 12
	.loc 1 14 0
	ldi r18,lo8(10)
	ldi r30,lo8(.LC0)
	ldi r31,hi8(.LC0)
	movw r26,r28
	adiw r26,1
	0:
	ld r0,Z+
	st X+,r0
	dec r18
	brne 0b
	.loc 1 15 0
	tst r22
	breq .L4
	cpi r22,lo8(1)
	brne .L9
	.loc 1 21 0
	ldi r30,lo8(1)
	ldi r31,0
	add r30,r28
	adc r31,r29
	add r30,r20
	adc r31,__zero_reg__
	ld r22,Z
.LVL3:
.L7:
/* epilogue start */
	.loc 1 25 0
	adiw r28,10
	in __tmp_reg__,__SREG__
	cli
	out __SP_H__,r29
	out __SREG__,__tmp_reg__
	out __SP_L__,r28
	pop r29
	pop r28
	.loc 1 21 0
	jmp GPIO_Port_Write
.LVL4:
.L9:
/* epilogue start */
	.loc 1 25 0
	adiw r28,10
	in __tmp_reg__,__SREG__
	cli
	out __SP_H__,r29
	out __SREG__,__tmp_reg__
	out __SP_L__,r28
	pop r29
	pop r28
	ret
.L4:
	.loc 1 18 0
	ldi r30,lo8(1)
	ldi r31,0
	add r30,r28
	adc r31,r29
	add r30,r20
	adc r31,__zero_reg__
	ld r22,Z
.LVL5:
	com r22
	rjmp .L7
	.cfi_endproc
.LFE1:
	.size	Seven_Seg_Write, .-Seven_Seg_Write
	.text
.Letext0:
	.file 2 "../Services/AVR_32_Registers.h"
	.file 3 "../Services/STD_Types.h"
	.file 4 "../HAL/Direct 7-Segment/Direct_7-Segment.h"
	.file 5 "../MCAL/DIO/GPIO.h"