	.file	"I2C_File.c"
__SP_H__ = 0x3e
__SP_L__ = 0x3d
__SREG__ = 0x3f
__tmp_reg__ = 0
__zero_reg__ = 1
	.text
.Ltext0:
	.cfi_sections	.debug_frame
	.section	.text.TWI_INIT,"ax",@progbits
.global	TWI_INIT
	.type	TWI_INIT, @function
TWI_INIT:
.LFB0:
	.file 1 "../MCAL/CommuncationProtocols/I2C_File.c"
	.loc 1 13 0
	.cfi_startproc
.LVL0:
	push r12
.LCFI0:
	.cfi_def_cfa_offset 3
	.cfi_offset 12, -2
	push r13
.LCFI1:
	.cfi_def_cfa_offset 4
	.cfi_offset 13, -3
	push r14
.LCFI2:
	.cfi_def_cfa_offset 5
	.cfi_offset 14, -4
	push r15
.LCFI3:
	.cfi_def_cfa_offset 6
	.cfi_offset 15, -5
/* prologue: function */
/* frame size = 0 */
/* stack size = 4 */
.L__stack_usage = 4
	mov r18,r24
.LVL1:
	.loc 1 18 0
	lds r24,TWI_1
.LVL2:
	cpi r24,lo8(1)
	breq .L5
	.loc 1 17 0
	ldi r25,0
.LVL3:
	.loc 1 29 0
	lds r20,TWI_1+1
	cpi r20,lo8(4)
	brsh .L6
.L8:
	ldi r21,0
	movw r30,r20
	subi r30,lo8(-(CSWTCH.1))
	sbci r31,hi8(-(CSWTCH.1))
	ld r12,Z
	movw r30,r20
	subi r30,lo8(-(CSWTCH.2))
	sbci r31,hi8(-(CSWTCH.2))
	ld r24,Z
	mov r13,__zero_reg__
	lsl r12
	rol r13
	clr r14
	sbrc r13,7
	com r14
	mov r15,r14
.L4:
.LVL4:
	.loc 1 54 0
	out 0x36,r25
	.loc 1 55 0
	out 0x1,r24
	.loc 1 56 0
	ldi r19,0
	ldi r20,0
	ldi r21,0
	ldi r22,0
	ldi r23,lo8(36)
	ldi r24,lo8(-12)
	ldi r25,0
	call __udivmodsi4
.LVL5:
	movw r24,r20
	movw r22,r18
	subi r22,16
	sbc r23,__zero_reg__
	sbc r24,__zero_reg__
	sbc r25,__zero_reg__
	movw r20,r14
	movw r18,r12
	call __udivmodsi4
	out 0,r18
/* epilogue start */
	.loc 1 57 0
	pop r15
	pop r14
	pop r13
	pop r12
	ret
.LVL6:
.L5:
	.loc 1 21 0
	ldi r25,lo8(4)
.LVL7:
	.loc 1 29 0
	lds r20,TWI_1+1
	cpi r20,lo8(4)
	brlo .L8
.L6:
	mov r12,__zero_reg__
	mov r13,__zero_reg__
	movw r14,r12
	ldi r24,0
	rjmp .L4
	.cfi_endproc
.LFE0:
	.size	TWI_INIT, .-TWI_INIT
	.section	.text.TWI_Start,"ax",@progbits
.global	TWI_Start
	.type	TWI_Start, @function
TWI_Start:
.LFB1:
	.loc 1 59 0
	.cfi_startproc
.LVL8:
/* prologue: function */
/* frame size = 0 */
/* stack size = 0 */
.L__stack_usage = 0
	.loc 1 60 0
	lds r25,TWI_1+3
	tst r25
	breq .L11
	cpi r25,lo8(4)
	brsh .L9
	.loc 1 77 0
	out 0x2,r24
	.loc 1 78 0
	in r24,0x36
.LVL9:
	ori r24,lo8(4)
	out 0x36,r24
.LVL10:
	.loc 1 79 0
	in r24,0x36
	ori r24,lo8(64)
	out 0x36,r24
	.loc 1 80 0
	in r24,0x36
	ori r24,lo8(-128)
	out 0x36,r24
.L22:
	.loc 1 81 0 discriminator 1
	in __tmp_reg__,0x36
	sbrs __tmp_reg__,7
	rjmp .L22
.L24:
	.loc 1 82 0 discriminator 1
	in r24,0x1
	andi r24,lo8(-8)
	cpi r24,lo8(96)
	brne .L24
.L9:
	ret
.LVL11:
.L11:
	.loc 1 63 0
	in r25,0x36
	ori r25,lo8(4)
	out 0x36,r25
	.loc 1 64 0
	in r25,0x36
	ori r25,lo8(-128)
	out 0x36,r25
	.loc 1 65 0
	in r25,0x36
	ori r25,lo8(32)
	out 0x36,r25
.L14:
	.loc 1 66 0 discriminator 1
	in __tmp_reg__,0x36
	sbrs __tmp_reg__,7
	rjmp .L14
.L16:
	.loc 1 67 0 discriminator 1
	in r25,0x1
	andi r25,lo8(-8)
	cpi r25,lo8(8)
	brne .L16
	.loc 1 68 0
	out 0x3,r24
	.loc 1 69 0
	in r24,0x36
.LVL12:
	ori r24,lo8(4)
	out 0x36,r24
.LVL13:
	.loc 1 70 0
	in r24,0x36
	ori r24,lo8(-128)
	out 0x36,r24
.L18:
	.loc 1 71 0 discriminator 1
	in __tmp_reg__,0x36
	sbrs __tmp_reg__,7
	rjmp .L18
.L20:
	.loc 1 72 0 discriminator 1
	in r24,0x1
	andi r24,lo8(-8)
	cpi r24,lo8(24)
	brne .L20
	ret
	.cfi_endproc
.LFE1:
	.size	TWI_Start, .-TWI_Start
	.section	.text.TWI_Write_Byte,"ax",@progbits
.global	TWI_Write_Byte
	.type	TWI_Write_Byte, @function
TWI_Write_Byte:
.LFB2:
	.loc 1 88 0
	.cfi_startproc
.LVL14:
/* prologue: function */
/* frame size = 0 */
/* stack size = 0 */
.L__stack_usage = 0
	.loc 1 89 0
	out 0x3,r24
	.loc 1 90 0
	in r24,0x36
.LVL15:
	ori r24,lo8(4)
	out 0x36,r24
.LVL16:
	.loc 1 91 0
	in r24,0x36
	ori r24,lo8(-128)
	out 0x36,r24
.L31:
	.loc 1 92 0 discriminator 1
	in __tmp_reg__,0x36
	sbrs __tmp_reg__,7
	rjmp .L31
.L33:
	.loc 1 93 0 discriminator 1
	in r24,0x1
	andi r24,lo8(-8)
	cpi r24,lo8(40)
	brne .L33
/* epilogue start */
	.loc 1 94 0
	ret
	.cfi_endproc
.LFE2:
	.size	TWI_Write_Byte, .-TWI_Write_Byte
	.section	.text.TWI_Read_Byte,"ax",@progbits
.global	TWI_Read_Byte
	.type	TWI_Read_Byte, @function
TWI_Read_Byte:
.LFB3:
	.loc 1 97 0
	.cfi_startproc
/* prologue: function */
/* frame size = 0 */
/* stack size = 0 */
.L__stack_usage = 0
	.loc 1 98 0
	in r24,0x36
	ori r24,lo8(4)
	out 0x36,r24
	.loc 1 99 0
	in r24,0x36
	ori r24,lo8(64)
	out 0x36,r24
	.loc 1 100 0
	in r24,0x36
	ori r24,lo8(-128)
	out 0x36,r24
.L36:
	.loc 1 101 0 discriminator 1
	in __tmp_reg__,0x36
	sbrs __tmp_reg__,7
	rjmp .L36
.L38:
	.loc 1 102 0 discriminator 1
	in r24,0x1
	andi r24,lo8(-8)
	cpi r24,lo8(-128)
	brne .L38
	.loc 1 103 0
	in r24,0x2
	.loc 1 104 0
	ret
	.cfi_endproc
.LFE3:
	.size	TWI_Read_Byte, .-TWI_Read_Byte
	.section	.text.TWI_Stop,"ax",@progbits
.global	TWI_Stop
	.type	TWI_Stop, @function
TWI_Stop:
.LFB4:
	.loc 1 107 0
	.cfi_startproc
/* prologue: function */
/* frame size = 0 */
/* stack size = 0 */
.L__stack_usage = 0
	.loc 1 108 0
	in r24,0x36
	ori r24,lo8(4)
	out 0x36,r24
	.loc 1 109 0
	in r24,0x36
	ori r24,lo8(-128)
	out 0x36,r24
	.loc 1 110 0
	in r24,0x36
	ori r24,lo8(16)
	out 0x36,r24
.L41:
	.loc 1 111 0 discriminator 1
	in __tmp_reg__,0x36
	sbrs __tmp_reg__,7
	rjmp .L41
.L43:
	.loc 1 112 0 discriminator 1
	in __tmp_reg__,0x36
	sbrc __tmp_reg__,4
	rjmp .L43
/* epilogue start */
	.loc 1 113 0
	ret
	.cfi_endproc
.LFE4:
	.size	TWI_Stop, .-TWI_Stop
	.section	.rodata.CSWTCH.2,"a",@progbits
	.type	CSWTCH.2, @object
	.size	CSWTCH.2, 4
CSWTCH.2:
	.byte	0
	.byte	1
	.byte	2
	.byte	3
	.section	.rodata.CSWTCH.1,"a",@progbits
	.type	CSWTCH.1, @object
	.size	CSWTCH.1, 4
CSWTCH.1:
	.byte	1
	.byte	4
	.byte	16
	.byte	64
.global	TWI_1
	.section	.bss.TWI_1,"aw",@nobits
	.type	TWI_1, @object
	.size	TWI_1, 4
TWI_1:
	.zero	4
	.text
.Letext0:
	.file 2 "../Services/STD_Types.h"
	.file 3 "../MCAL/CommuncationProtocols/I2C_File.h"