	.file	"ICU.c"
__SP_H__ = 0x3e
__SP_L__ = 0x3d
__SREG__ = 0x3f
__tmp_reg__ = 0
__zero_reg__ = 1
	.text
.Ltext0:
	.cfi_sections	.debug_frame
	.section	.text.ICU_Init_System,"ax",@progbits
.global	ICU_Init_System
	.type	ICU_Init_System, @function
ICU_Init_System:
.LFB0:
	.file 1 "../APP/Timer_APP/ICU_Timer1/ICU.c"
	.loc 1 15 0
	.cfi_startproc
/* prologue: function */
/* frame size = 0 */
/* stack size = 0 */
.L__stack_usage = 0
	.loc 1 16 0
	jmp LCD_Init
.LVL0:
	.cfi_endproc
.LFE0:
	.size	ICU_Init_System, .-ICU_Init_System
.global	__floatunsisf
.global	__divsf3
.global	__mulsf3
.global	__fixunssfsi
	.section	.rodata.str1.1,"aMS",@progbits,1
.LC0:
	.string	"duty:"
.LC1:
	.string	"freq:"
.LC2:
	.string	"HZ"
.LC3:
	.string	"out of range"
	.section	.text.ICU_Control_System,"ax",@progbits
.global	ICU_Control_System
	.type	ICU_Control_System, @function
ICU_Control_System:
.LFB1:
	.loc 1 19 0
	.cfi_startproc
	push r12
.LCFI0:
	.cfi_def_cfa_offset 3
	.cfi_offset 12, -2
	push r13
.LCFI1:
	.cfi_def_cfa_offset 4
	.cfi_offset 13, -3
	push r14
.LCFI2:
	.cfi_def_cfa_offset 5
	.cfi_offset 14, -4
	push r15
.LCFI3:
	.cfi_def_cfa_offset 6
	.cfi_offset 15, -5
	push r28
.LCFI4:
	.cfi_def_cfa_offset 7
	.cfi_offset 28, -6
	push r29
.LCFI5:
	.cfi_def_cfa_offset 8
	.cfi_offset 29, -7
/* prologue: function */
/* frame size = 0 */
/* stack size = 6 */
.L__stack_usage = 6
	.loc 1 22 0
	out 0x2f,__zero_reg__
	.loc 1 23 0
	in r24,0x38
	ori r24,lo8(32)
	out 0x38,r24
	.loc 1 27 0
	ldi r24,lo8(-63)
	out 0x2e,r24
.L4:
	.loc 1 28 0 discriminator 1
	in __tmp_reg__,0x38
	sbrs __tmp_reg__,5
	rjmp .L4
	.loc 1 29 0
	in r24,0x26
	in r25,0x26+1
	sts a+1,r25
	sts a,r24
	.loc 1 30 0
	in r24,0x38
	ori r24,lo8(32)
	out 0x38,r24
	.loc 1 33 0
	ldi r24,lo8(-127)
	out 0x2e,r24
.L6:
	.loc 1 34 0 discriminator 1
	in __tmp_reg__,0x38
	sbrs __tmp_reg__,5
	rjmp .L6
	.loc 1 35 0
	in r24,0x26
	in r25,0x26+1
	sts b+1,r25
	sts b,r24
	.loc 1 36 0
	in r24,0x38
	ori r24,lo8(32)
	out 0x38,r24
	.loc 1 39 0
	ldi r24,lo8(-63)
	out 0x2e,r24
.L8:
	.loc 1 40 0 discriminator 1
	in __tmp_reg__,0x38
	sbrs __tmp_reg__,5
	rjmp .L8
	.loc 1 41 0
	in r24,0x26
	in r25,0x26+1
	sts c+1,r25
	sts c,r24
	.loc 1 42 0
	in r24,0x38
	ori r24,lo8(32)
	out 0x38,r24
	.loc 1 45 0
	out 0x2e,__zero_reg__
	.loc 1 46 0
	lds r24,a
	lds r25,a+1
	lds r22,b
	lds r23,b+1
	cp r24,r22
	cpc r25,r23
	brsh .L9
	.loc 1 46 0 is_stmt 0 discriminator 1
	lds r28,c
	lds r29,c+1
	cp r22,r28
	cpc r23,r29
	brlo .L12
.L9:
	.loc 1 66 0 is_stmt 1
	call Clear_LCD
.LVL1:
	.loc 1 67 0
	ldi r24,lo8(.LC3)
	ldi r25,hi8(.LC3)
/* epilogue start */
	.loc 1 71 0
	pop r29
	pop r28
	pop r15
	pop r14
	pop r13
	pop r12
	.loc 1 67 0
	jmp Send_String_LCD
.LVL2:
.L12:
	.loc 1 48 0
	sub r22,r24
	sbc r23,r25
	sts T_on+1,r23
	sts T_on,r22
	.loc 1 49 0
	sub r28,r24
	sbc r29,r25
	sts Time_Period+1,r29
	sts Time_Period,r28
	.loc 1 50 0
	ldi r24,0
	ldi r25,0
	call __floatunsisf
.LVL3:
	movw r12,r22
	movw r14,r24
	movw r22,r28
	ldi r24,0
	ldi r25,0
	call __floatunsisf
.LVL4:
	movw r18,r22
	movw r20,r24
	movw r24,r14
	movw r22,r12
	call __divsf3
.LVL5:
	ldi r18,0
	ldi r19,0
	ldi r20,lo8(-56)
	ldi r21,lo8(66)
	call __mulsf3
.LVL6:
	call __fixunssfsi
.LVL7:
	sts Duty_Cyle+1,r23
	sts Duty_Cyle,r22
	.loc 1 51 0
	lds r24,Presaler_Val
	mul r24,r28
	movw r18,r0
	mul r24,r29
	add r19,r0
	clr __zero_reg__
	ldi r20,0
	ldi r21,0
	ldi r22,0
	ldi r23,lo8(18)
	ldi r24,lo8(122)
	ldi r25,0
	call __udivmodsi4
	sts Frequancy+1,r19
	sts Frequancy,r18
	.loc 1 52 0
	ldi r24,lo8(.LC0)
	ldi r25,hi8(.LC0)
	call Send_String_LCD
.LVL8:
	.loc 1 53 0
	lds r18,Duty_Cyle
	lds r19,Duty_Cyle+1
	ldi r26,lo8(-51)
	ldi r27,lo8(-52)
	call __umulhisi3
	lsr r25
	ror r24
	lsr r25
	ror r24
	lsr r25
	ror r24
	subi r24,lo8(-(48))
	call Send_char_LCD
.LVL9:
	.loc 1 54 0
	lds r30,Duty_Cyle
	lds r31,Duty_Cyle+1
	movw r18,r30
	ldi r26,lo8(-51)
	ldi r27,lo8(-52)
	call __umulhisi3
	lsr r25
	ror r24
	lsr r25
	ror r24
	lsr r25
	ror r24
	movw r20,r24
	lsl r20
	rol r21
	lsl r24
	rol r25
	lsl r24
	rol r25
	lsl r24
	rol r25
	add r20,r24
	adc r21,r25
	movw r24,r30
	sub r24,r20
	sbc r25,r21
	subi r24,lo8(-(48))
	call Send_char_LCD
.LVL10:
	.loc 1 55 0
	ldi r24,lo8(37)
	call Send_char_LCD
.LVL11:
	.loc 1 56 0
	ldi r22,lo8(1)
	ldi r24,lo8(2)
	call Move_Curser_LCD
.LVL12:
	.loc 1 57 0
	ldi r24,lo8(.LC1)
	ldi r25,hi8(.LC1)
	call Send_String_LCD
.LVL13:
	.loc 1 58 0
	lds r18,Frequancy
	lds r19,Frequancy+1
	lsr r19
	ror r18
	lsr r19
	ror r18
	lsr r19
	ror r18
	ldi r26,lo8(-59)
	ldi r27,lo8(32)
	call __umulhisi3
	swap r25
	swap r24
	andi r24,0x0f
	eor r24,r25
	andi r25,0x0f
	eor r24,r25
	subi r24,lo8(-(48))
	call Send_char_LCD
.LVL14:
	.loc 1 59 0
	lds r18,Frequancy
	lds r19,Frequancy+1
	lsr r19
	ror r18
	lsr r19
	ror r18
	ldi r26,lo8(123)
	ldi r27,lo8(20)
	call __umulhisi3
	movw r30,r24
	lsr r31
	ror r30
	movw r18,r30
	ldi r26,lo8(-51)
	ldi r27,lo8(-52)
	call __umulhisi3
	lsr r25
	ror r24
	lsr r25
	ror r24
	lsr r25
	ror r24
	movw r20,r24
	lsl r20
	rol r21
	lsl r24
	rol r25
	lsl r24
	rol r25
	lsl r24
	rol r25
	add r20,r24
	adc r21,r25
	movw r24,r30
	sub r24,r20
	sbc r25,r21
	subi r24,lo8(-(48))
	call Send_char_LCD
.LVL15:
	.loc 1 60 0
	lds r18,Frequancy
	lds r19,Frequancy+1
	ldi r26,lo8(-51)
	ldi r27,lo8(-52)
	call __umulhisi3
	movw r30,r24
	lsr r31
	ror r30
	lsr r31
	ror r30
	lsr r31
	ror r30
	movw r18,r30
	call __umulhisi3
	lsr r25
	ror r24
	lsr r25
	ror r24
	lsr r25
	ror r24
	movw r20,r24
	lsl r20
	rol r21
	lsl r24
	rol r25
	lsl r24
	rol r25
	lsl r24
	rol r25
	add r20,r24
	adc r21,r25
	movw r24,r30
	sub r24,r20
	sbc r25,r21
	subi r24,lo8(-(48))
	call Send_char_LCD
.LVL16:
	.loc 1 61 0
	lds r30,Frequancy
	lds r31,Frequancy+1
	movw r18,r30
	ldi r26,lo8(-51)
	ldi r27,lo8(-52)
	call __umulhisi3
	lsr r25
	ror r24
	lsr r25
	ror r24
	lsr r25
	ror r24
	movw r20,r24
	lsl r20
	rol r21
	lsl r24
	rol r25
	lsl r24
	rol r25
	lsl r24
	rol r25
	add r20,r24
	adc r21,r25
	movw r24,r30
	sub r24,r20
	sbc r25,r21
	subi r24,lo8(-(48))
	call Send_char_LCD
.LVL17:
	.loc 1 62 0
	ldi r24,lo8(.LC2)
	ldi r25,hi8(.LC2)
/* epilogue start */
	.loc 1 71 0
	pop r29
	pop r28
	pop r15
	pop r14
	pop r13
	pop r12
	.loc 1 67 0
	jmp Send_String_LCD
.LVL18:
	.cfi_endproc
.LFE1:
	.size	ICU_Control_System, .-ICU_Control_System
.global	Presaler_Val
	.section	.data.Presaler_Val,"aw",@progbits
	.type	Presaler_Val, @object
	.size	Presaler_Val, 1
Presaler_Val:
	.byte	1
	.comm	Timer1,6,1
	.comm	Frequancy,2,1
	.comm	Duty_Cyle,2,1
	.comm	Time_Period,2,1
	.comm	T_on,2,1
	.comm	c,2,1
	.comm	b,2,1
	.comm	a,2,1
	.text
.Letext0:
	.file 2 "../Services/STD_Types.h"
	.file 3 "../MCAL/Timer_1/Timer_1.h"
	.file 4 "../HAL/LCD_Screen/LCD.h"