	.file	"Interrupt.c"
__SP_H__ = 0x3e
__SP_L__ = 0x3d
__SREG__ = 0x3f
__tmp_reg__ = 0
__zero_reg__ = 1
	.text
.Ltext0:
	.cfi_sections	.debug_frame
	.section	.text.__vector_1,"ax",@progbits
.global	__vector_1
	.type	__vector_1, @function
__vector_1:
.LFB0:
	.file 1 "../MCAL/Interrupt/Interrupt.c"
	.loc 1 20 0
	.cfi_startproc
	push r1
.LCFI0:
	.cfi_def_cfa_offset 3
	.cfi_offset 1, -2
	push r0
.LCFI1:
	.cfi_def_cfa_offset 4
	.cfi_offset 0, -3
	in r0,__SREG__
	push r0
	clr __zero_reg__
	push r18
.LCFI2:
	.cfi_def_cfa_offset 5
	.cfi_offset 18, -4
	push r19
.LCFI3:
	.cfi_def_cfa_offset 6
	.cfi_offset 19, -5
	push r20
.LCFI4:
	.cfi_def_cfa_offset 7
	.cfi_offset 20, -6
	push r21
.LCFI5:
	.cfi_def_cfa_offset 8
	.cfi_offset 21, -7
	push r22
.LCFI6:
	.cfi_def_cfa_offset 9
	.cfi_offset 22, -8
	push r23
.LCFI7:
	.cfi_def_cfa_offset 10
	.cfi_offset 23, -9
	push r24
.LCFI8:
	.cfi_def_cfa_offset 11
	.cfi_offset 24, -10
	push r25
.LCFI9:
	.cfi_def_cfa_offset 12
	.cfi_offset 25, -11
	push r26
.LCFI10:
	.cfi_def_cfa_offset 13
	.cfi_offset 26, -12
	push r27
.LCFI11:
	.cfi_def_cfa_offset 14
	.cfi_offset 27, -13
	push r30
.LCFI12:
	.cfi_def_cfa_offset 15
	.cfi_offset 30, -14
	push r31
.LCFI13:
	.cfi_def_cfa_offset 16
	.cfi_offset 31, -15
/* prologue: Signal */
/* frame size = 0 */
/* stack size = 15 */
.L__stack_usage = 15
	.loc 1 21 0
	lds r30,EXT_INT0_ISR
	lds r31,EXT_INT0_ISR+1
	sbiw r30,0
	breq .L1
	.loc 1 23 0
	icall
.LVL0:
.L1:
/* epilogue start */
	.loc 1 25 0
	pop r31
	pop r30
	pop r27
	pop r26
	pop r25
	pop r24
	pop r23
	pop r22
	pop r21
	pop r20
	pop r19
	pop r18
	pop r0
	out __SREG__,r0
	pop r0
	pop r1
	reti
	.cfi_endproc
.LFE0:
	.size	__vector_1, .-__vector_1
	.section	.text.__vector_2,"ax",@progbits
.global	__vector_2
	.type	__vector_2, @function
__vector_2:
.LFB1:
	.loc 1 28 0
	.cfi_startproc
/* prologue: naked */
/* frame size = 0 */
/* stack size = 0 */
.L__stack_usage = 0
	.loc 1 29 0
	lds r30,EXT_INT1_ISR
	lds r31,EXT_INT1_ISR+1
	sbiw r30,0
	breq .L7
	.loc 1 31 0
	icall
.LVL1:
.L7:
/* epilogue start */
	.loc 1 33 0
	.cfi_endproc
.LFE1:
	.size	__vector_2, .-__vector_2
	.section	.text.__vector_3,"ax",@progbits
.global	__vector_3
	.type	__vector_3, @function
__vector_3:
.LFB2:
	.loc 1 36 0
	.cfi_startproc
	push r1
.LCFI14:
	.cfi_def_cfa_offset 3
	.cfi_offset 1, -2
	push r0
.LCFI15:
	.cfi_def_cfa_offset 4
	.cfi_offset 0, -3
	in r0,__SREG__
	push r0
	clr __zero_reg__
	push r18
.LCFI16:
	.cfi_def_cfa_offset 5
	.cfi_offset 18, -4
	push r19
.LCFI17:
	.cfi_def_cfa_offset 6
	.cfi_offset 19, -5
	push r20
.LCFI18:
	.cfi_def_cfa_offset 7
	.cfi_offset 20, -6
	push r21
.LCFI19:
	.cfi_def_cfa_offset 8
	.cfi_offset 21, -7
	push r22
.LCFI20:
	.cfi_def_cfa_offset 9
	.cfi_offset 22, -8
	push r23
.LCFI21:
	.cfi_def_cfa_offset 10
	.cfi_offset 23, -9
	push r24
.LCFI22:
	.cfi_def_cfa_offset 11
	.cfi_offset 24, -10
	push r25
.LCFI23:
	.cfi_def_cfa_offset 12
	.cfi_offset 25, -11
	push r26
.LCFI24:
	.cfi_def_cfa_offset 13
	.cfi_offset 26, -12
	push r27
.LCFI25:
	.cfi_def_cfa_offset 14
	.cfi_offset 27, -13
	push r30
.LCFI26:
	.cfi_def_cfa_offset 15
	.cfi_offset 30, -14
	push r31
.LCFI27:
	.cfi_def_cfa_offset 16
	.cfi_offset 31, -15
/* prologue: Signal */
/* frame size = 0 */
/* stack size = 15 */
.L__stack_usage = 15
	.loc 1 37 0
	lds r30,EXT_INT2_ISR
	lds r31,EXT_INT2_ISR+1
	sbiw r30,0
	breq .L12
	.loc 1 39 0
	icall
.LVL2:
.L12:
/* epilogue start */
	.loc 1 41 0
	pop r31
	pop r30
	pop r27
	pop r26
	pop r25
	pop r24
	pop r23
	pop r22
	pop r21
	pop r20
	pop r19
	pop r18
	pop r0
	out __SREG__,r0
	pop r0
	pop r1
	reti
	.cfi_endproc
.LFE2:
	.size	__vector_3, .-__vector_3
	.section	.text.__vector_16,"ax",@progbits
.global	__vector_16
	.type	__vector_16, @function
__vector_16:
.LFB3:
	.loc 1 43 0
	.cfi_startproc
	push r1
.LCFI28:
	.cfi_def_cfa_offset 3
	.cfi_offset 1, -2
	push r0
.LCFI29:
	.cfi_def_cfa_offset 4
	.cfi_offset 0, -3
	in r0,__SREG__
	push r0
	clr __zero_reg__
	push r18
.LCFI30:
	.cfi_def_cfa_offset 5
	.cfi_offset 18, -4
	push r19
.LCFI31:
	.cfi_def_cfa_offset 6
	.cfi_offset 19, -5
	push r20
.LCFI32:
	.cfi_def_cfa_offset 7
	.cfi_offset 20, -6
	push r21
.LCFI33:
	.cfi_def_cfa_offset 8
	.cfi_offset 21, -7
	push r22
.LCFI34:
	.cfi_def_cfa_offset 9
	.cfi_offset 22, -8
	push r23
.LCFI35:
	.cfi_def_cfa_offset 10
	.cfi_offset 23, -9
	push r24
.LCFI36:
	.cfi_def_cfa_offset 11
	.cfi_offset 24, -10
	push r25
.LCFI37:
	.cfi_def_cfa_offset 12
	.cfi_offset 25, -11
	push r26
.LCFI38:
	.cfi_def_cfa_offset 13
	.cfi_offset 26, -12
	push r27
.LCFI39:
	.cfi_def_cfa_offset 14
	.cfi_offset 27, -13
	push r30
.LCFI40:
	.cfi_def_cfa_offset 15
	.cfi_offset 30, -14
	push r31
.LCFI41:
	.cfi_def_cfa_offset 16
	.cfi_offset 31, -15
/* prologue: Signal */
/* frame size = 0 */
/* stack size = 15 */
.L__stack_usage = 15
	.loc 1 44 0
	lds r30,ADC_INT_ISR
	lds r31,ADC_INT_ISR+1
	sbiw r30,0
	breq .L17
	.loc 1 46 0
	icall
.LVL3:
.L17:
/* epilogue start */
	.loc 1 48 0
	pop r31
	pop r30
	pop r27
	pop r26
	pop r25
	pop r24
	pop r23
	pop r22
	pop r21
	pop r20
	pop r19
	pop r18
	pop r0
	out __SREG__,r0
	pop r0
	pop r1
	reti
	.cfi_endproc
.LFE3:
	.size	__vector_16, .-__vector_16
	.section	.text.EXTINT_InterruptInit,"ax",@progbits
.global	EXTINT_InterruptInit
	.type	EXTINT_InterruptInit, @function
EXTINT_InterruptInit:
.LFB4:
	.loc 1 50 0
	.cfi_startproc
.LVL4:
/* prologue: function */
/* frame size = 0 */
/* stack size = 0 */
.L__stack_usage = 0
	.loc 1 51 0
	cpi r24,lo8(1)
	breq .L24
	brlo .L25
	cpi r24,lo8(2)
	brne .L40
	.loc 1 102 0
	cpi r22,lo8(2)
	breq .L38
	cpi r22,lo8(3)
	brne .L37
	.loc 1 111 0
	in r24,0x35
.LVL5:
	ori r24,lo8(64)
	out 0x35,r24
.L37:
	.loc 1 116 0
	in r24,0x3b
	ori r24,lo8(32)
	out 0x3b,r24
	ret
.LVL6:
.L40:
	ret
.L25:
	.loc 1 54 0
	cpi r22,lo8(1)
	breq .L28
	brlo .L29
	cpi r22,lo8(2)
	breq .L30
	cpi r22,lo8(3)
	brne .L27
	.loc 1 69 0
	in r24,0x35
.LVL7:
	ori r24,lo8(2)
	out 0x35,r24
	.loc 1 70 0
	in r24,0x35
	ori r24,lo8(1)
	out 0x35,r24
.L27:
	.loc 1 75 0
	in r24,0x3b
	ori r24,lo8(-128)
	out 0x3b,r24
	.loc 1 76 0
	ret
.LVL8:
.L24:
	.loc 1 78 0
	cpi r22,lo8(1)
	breq .L33
	brlo .L34
	cpi r22,lo8(2)
	breq .L35
	cpi r22,lo8(3)
	brne .L32
	.loc 1 93 0
	in r24,0x35
.LVL9:
	ori r24,lo8(4)
	out 0x35,r24
	.loc 1 94 0
	in r24,0x35
	ori r24,lo8(8)
	out 0x35,r24
.L32:
	.loc 1 99 0
	in r24,0x3b
	ori r24,lo8(64)
	out 0x3b,r24
	.loc 1 100 0
	ret
.LVL10:
.L38:
	.loc 1 108 0
	in r24,0x35
.LVL11:
	andi r24,lo8(-65)
	out 0x35,r24
	.loc 1 109 0
	rjmp .L37
.LVL12:
.L34:
	.loc 1 81 0
	in r24,0x35
.LVL13:
	andi r24,lo8(-5)
	out 0x35,r24
	.loc 1 82 0
	in r24,0x35
	andi r24,lo8(-9)
	out 0x35,r24
	.loc 1 83 0
	rjmp .L32
.LVL14:
.L29:
	.loc 1 57 0
	in r24,0x35
.LVL15:
	andi r24,lo8(-3)
	out 0x35,r24
	.loc 1 58 0
	in r24,0x35
	andi r24,lo8(-2)
	out 0x35,r24
	.loc 1 59 0
	rjmp .L27
.LVL16:
.L30:
	.loc 1 65 0
	in r24,0x35
.LVL17:
	ori r24,lo8(2)
	out 0x35,r24
	.loc 1 66 0
	in r24,0x35
	andi r24,lo8(-2)
	out 0x35,r24
	.loc 1 67 0
	rjmp .L27
.LVL18:
.L28:
	.loc 1 61 0
	in r24,0x35
.LVL19:
	andi r24,lo8(-3)
	out 0x35,r24
	.loc 1 62 0
	in r24,0x35
	ori r24,lo8(1)
	out 0x35,r24
	.loc 1 63 0
	rjmp .L27
.LVL20:
.L35:
	.loc 1 89 0
	in r24,0x35
.LVL21:
	ori r24,lo8(4)
	out 0x35,r24
	.loc 1 90 0
	in r24,0x35
	andi r24,lo8(-9)
	out 0x35,r24
	.loc 1 91 0
	rjmp .L32
.LVL22:
.L33:
	.loc 1 85 0
	in r24,0x35
.LVL23:
	andi r24,lo8(-5)
	out 0x35,r24
	.loc 1 86 0
	in r24,0x35
	ori r24,lo8(8)
	out 0x35,r24
	.loc 1 87 0
	rjmp .L32
	.cfi_endproc
.LFE4:
	.size	EXTINT_InterruptInit, .-EXTINT_InterruptInit
.global	ADC_INT_ISR
	.section	.bss.ADC_INT_ISR,"aw",@nobits
	.type	ADC_INT_ISR, @object
	.size	ADC_INT_ISR, 2
ADC_INT_ISR:
	.zero	2
.global	EXT_INT2_ISR
	.section	.bss.EXT_INT2_ISR,"aw",@nobits
	.type	EXT_INT2_ISR, @object
	.size	EXT_INT2_ISR, 2
EXT_INT2_ISR:
	.zero	2
.global	EXT_INT1_ISR
	.section	.bss.EXT_INT1_ISR,"aw",@nobits
	.type	EXT_INT1_ISR, @object
	.size	EXT_INT1_ISR, 2
EXT_INT1_ISR:
	.zero	2
.global	EXT_INT0_ISR
	.section	.bss.EXT_INT0_ISR,"aw",@nobits
	.type	EXT_INT0_ISR, @object
	.size	EXT_INT0_ISR, 2
EXT_INT0_ISR:
	.zero	2
	.text
.Letext0:
	.file 2 "../Services/STD_Types.h"
	.file 3 "../MCAL/Interrupt/Interrupt.h"