	.file	"Keypad.c"
__SP_H__ = 0x3e
__SP_L__ = 0x3d
__SREG__ = 0x3f
__tmp_reg__ = 0
__zero_reg__ = 1
	.text
.Ltext0:
	.cfi_sections	.debug_frame
	.section	.text.keypad_Init,"ax",@progbits
.global	keypad_Init
	.type	keypad_Init, @function
keypad_Init:
.LFB6:
	.file 1 "../HAL/Keypad/Keypad.c"
	.loc 1 13 0
	.cfi_startproc
	push r16
.LCFI0:
	.cfi_def_cfa_offset 3
	.cfi_offset 16, -2
	push r17
.LCFI1:
	.cfi_def_cfa_offset 4
	.cfi_offset 17, -3
	push r28
.LCFI2:
	.cfi_def_cfa_offset 5
	.cfi_offset 28, -4
	push r29
.LCFI3:
	.cfi_def_cfa_offset 6
	.cfi_offset 29, -5
	in r28,__SP_L__
	in r29,__SP_H__
.LCFI4:
	.cfi_def_cfa_register 28
	sbiw r28,10
.LCFI5:
	.cfi_def_cfa_offset 16
	in __tmp_reg__,__SREG__
	cli
	out __SP_H__,r29
	out __SREG__,__tmp_reg__
	out __SP_L__,r28
/* prologue: function */
/* frame size = 10 */
/* stack size = 14 */
.L__stack_usage = 14
	std Y+1,r16
	std Y+2,r17
	std Y+4,r19
	std Y+5,r20
	std Y+6,r21
	std Y+7,r22
	std Y+8,r23
	std Y+9,r24
	std Y+10,r25
	ldd r16,Y+1
	ldd r17,Y+2
.LVL0:
	.loc 1 14 0
	ldi r20,0
	mov r22,r18
	movw r24,r16
	call GPIO_Pin_Configuration
.LVL1:
	.loc 1 15 0
	ldi r20,0
	ldd r22,Y+4
	movw r24,r16
	call GPIO_Pin_Configuration
.LVL2:
	.loc 1 16 0
	ldi r20,0
	ldd r22,Y+5
	movw r24,r16
	call GPIO_Pin_Configuration
.LVL3:
	.loc 1 17 0
	ldi r20,0
	ldd r22,Y+6
	movw r24,r16
	call GPIO_Pin_Configuration
.LVL4:
	.loc 1 18 0
	ldi r20,lo8(2)
	ldd r22,Y+7
	movw r24,r16
	call GPIO_Pin_Configuration
.LVL5:
	.loc 1 19 0
	ldi r20,lo8(2)
	ldd r22,Y+8
	movw r24,r16
	call GPIO_Pin_Configuration
.LVL6:
	.loc 1 20 0
	ldi r20,lo8(2)
	ldd r22,Y+9
	movw r24,r16
	call GPIO_Pin_Configuration
.LVL7:
	.loc 1 21 0
	ldi r20,lo8(2)
	ldd r22,Y+10
	movw r24,r16
/* epilogue start */
	.loc 1 23 0
	adiw r28,10
	in __tmp_reg__,__SREG__
	cli
	out __SP_H__,r29
	out __SREG__,__tmp_reg__
	out __SP_L__,r28
	pop r29
	pop r28
	pop r17
	pop r16
.LVL8:
	.loc 1 21 0
	jmp GPIO_Pin_Configuration
.LVL9:
	.cfi_endproc
.LFE6:
	.size	keypad_Init, .-keypad_Init
	.section	.rodata
.LC0:
	.byte	55
	.byte	56
	.byte	57
	.byte	65
	.byte	52
	.byte	53
	.byte	54
	.byte	66
	.byte	49
	.byte	50
	.byte	51
	.byte	67
	.byte	35
	.byte	48
	.byte	42
	.byte	68
	.section	.text.keypad_Read,"ax",@progbits
.global	keypad_Read
	.type	keypad_Read, @function
keypad_Read:
.LFB7:
	.loc 1 25 0
	.cfi_startproc
	push r8
.LCFI6:
	.cfi_def_cfa_offset 3
	.cfi_offset 8, -2
	push r9
.LCFI7:
	.cfi_def_cfa_offset 4
	.cfi_offset 9, -3
	push r10
.LCFI8:
	.cfi_def_cfa_offset 5
	.cfi_offset 10, -4
	push r11
.LCFI9:
	.cfi_def_cfa_offset 6
	.cfi_offset 11, -5
	push r12
.LCFI10:
	.cfi_def_cfa_offset 7
	.cfi_offset 12, -6
	push r13
.LCFI11:
	.cfi_def_cfa_offset 8
	.cfi_offset 13, -7
	push r14
.LCFI12:
	.cfi_def_cfa_offset 9
	.cfi_offset 14, -8
	push r15
.LCFI13:
	.cfi_def_cfa_offset 10
	.cfi_offset 15, -9
	push r16
.LCFI14:
	.cfi_def_cfa_offset 11
	.cfi_offset 16, -10
	push r17
.LCFI15:
	.cfi_def_cfa_offset 12
	.cfi_offset 17, -11
	push r28
.LCFI16:
	.cfi_def_cfa_offset 13
	.cfi_offset 28, -12
	push r29
.LCFI17:
	.cfi_def_cfa_offset 14
	.cfi_offset 29, -13
	in r28,__SP_L__
	in r29,__SP_H__
.LCFI18:
	.cfi_def_cfa_register 28
	sbiw r28,26
.LCFI19:
	.cfi_def_cfa_offset 40
	in __tmp_reg__,__SREG__
	cli
	out __SP_H__,r29
	out __SREG__,__tmp_reg__
	out __SP_L__,r28
/* prologue: function */
/* frame size = 26 */
/* stack size = 38 */
.L__stack_usage = 38
	std Y+17,r16
	std Y+18,r17
	std Y+19,r18
	std Y+20,r19
	std Y+21,r20
	std Y+22,r21
	std Y+23,r22
	std Y+24,r23
	std Y+25,r24
	std Y+26,r25
	ldd r16,Y+17
	ldd r17,Y+18
.LVL10:
	.loc 1 26 0
	ldi r24,lo8(16)
	ldi r30,lo8(.LC0)
	ldi r31,hi8(.LC0)
	movw r26,r28
	adiw r26,1
	0:
	ld r0,Z+
	st X+,r0
	dec r24
	brne 0b
.LVL11:
	ldd r9,Y+19
	ldd r10,Y+20
	ldd r11,Y+21
	ldd r12,Y+22
	mov r14,__zero_reg__
	mov r15,__zero_reg__
	.loc 1 31 0
	clr r8
	dec r8
.LVL12:
.L7:
	.loc 1 34 0
	ldi r20,lo8(1)
	mov r22,r9
	movw r24,r16
	call GPIO_Pin_Write
.LVL13:
	.loc 1 35 0
	ldi r20,lo8(1)
	mov r22,r10
	movw r24,r16
	call GPIO_Pin_Write
.LVL14:
	.loc 1 36 0
	ldi r20,lo8(1)
	mov r22,r11
	movw r24,r16
	call GPIO_Pin_Write
.LVL15:
	.loc 1 37 0
	ldi r20,lo8(1)
	mov r22,r12
	movw r24,r16
	call GPIO_Pin_Write
.LVL16:
	.loc 1 38 0
	ldi r20,0
	mov r22,r14
	movw r24,r16
	call GPIO_Pin_Write
.LVL17:
	.loc 1 39 0
	mov r13,__zero_reg__
.LVL18:
.L5:
	.loc 1 41 0
	ldi r22,lo8(4)
	add r22,r13
	movw r24,r16
	call GPIO_Pin_Read
.LVL19:
	.loc 1 42 0
	tst r24
	breq .L12
	.loc 1 39 0
	inc r13
.LVL20:
	ldi r25,lo8(4)
	cpse r13,r25
	rjmp .L5
.LVL21:
	ldi r24,-1
	sub r14,r24
	sbc r15,r24
.LVL22:
	.loc 1 32 0
	ldi r25,4
	cp r14,r25
	cpc r15,__zero_reg__
	brne .L7
.LVL23:
.L13:
	.loc 1 51 0
	mov r24,r8
/* epilogue start */
	adiw r28,26
	in __tmp_reg__,__SREG__
	cli
	out __SP_H__,r29
	out __SREG__,__tmp_reg__
	out __SP_L__,r28
	pop r29
	pop r28
	pop r17
	pop r16
.LVL24:
	pop r15
	pop r14
	pop r13
.LVL25:
	pop r12
	pop r11
	pop r10
	pop r9
	pop r8
.LVL26:
	ret
.LVL27:
.L12:
	.loc 1 44 0
	movw r30,r14
	lsl r30
	rol r31
	lsl r30
	rol r31
.LVL28:
	add r30,r13
	adc r31,__zero_reg__
	ldi r24,lo8(1)
	ldi r25,0
	add r24,r28
	adc r25,r29
	add r30,r24
	adc r31,r25
	ld r8,Z
.LVL29:
	ldi r24,-1
	sub r14,r24
	sbc r15,r24
.LVL30:
	.loc 1 32 0
	ldi r25,4
	cp r14,r25
	cpc r15,__zero_reg__
	breq .+2
	rjmp .L7
	rjmp .L13
	.cfi_endproc
.LFE7:
	.size	keypad_Read, .-keypad_Read
	.text
.Letext0:
	.file 2 "../Services/AVR_32_Registers.h"
	.file 3 "../Services/STD_Types.h"
	.file 4 "../MCAL/DIO/GPIO.h"
	.file 5 "../HAL/Keypad/Keypad.h"