	.file	"LCD.c"
__SP_H__ = 0x3e
__SP_L__ = 0x3d
__SREG__ = 0x3f
__tmp_reg__ = 0
__zero_reg__ = 1
	.text
.Ltext0:
	.cfi_sections	.debug_frame
	.section	.text.LCD_Init,"ax",@progbits
.global	LCD_Init
	.type	LCD_Init, @function
LCD_Init:
.LFB7:
	.file 1 "../HAL/LCD_Screen/LCD.c"
	.loc 1 18 0
	.cfi_startproc
/* prologue: function */
/* frame size = 0 */
/* stack size = 0 */
.L__stack_usage = 0
.LVL0:
.LBB100:
.LBB101:
	.file 2 "c:\\program files (x86)\\atmel\\atmel toolchain\\avr8 gcc\\native\\3.4.1061\\avr8-gnu-toolchain\\avr\\include\\util\\delay.h"
	.loc 2 163 0
	ldi r18,lo8(319999)
	ldi r24,hi8(319999)
	ldi r25,hlo8(319999)
	1: subi r18,1
	sbci r24,0
	sbci r25,0
	brne 1b
	rjmp .
	nop
.LBE101:
.LBE100:
	.loc 1 38 0
	ldi r22,lo8(-16)
	ldi r24,lo8(54)
	ldi r25,0
	call GPIO_Port_Configuration
.LVL1:
	.loc 1 39 0
	ldi r20,0
	ldi r22,0
	ldi r24,lo8(54)
	ldi r25,0
	call GPIO_Pin_Configuration
.LVL2:
	.loc 1 40 0
	ldi r20,0
	ldi r22,lo8(2)
	ldi r24,lo8(54)
	ldi r25,0
	call GPIO_Pin_Configuration
.LVL3:
	.loc 1 41 0
	ldi r20,0
	ldi r22,lo8(1)
	ldi r24,lo8(54)
	ldi r25,0
	call GPIO_Pin_Configuration
.LVL4:
	.loc 1 42 0
	cbi 0x15,1
.LVL5:
.LBB102:
.LBB103:
	.loc 2 163 0
	ldi r24,lo8(1999)
	ldi r25,hi8(1999)
	1: sbiw r24,1
	brne 1b
	rjmp .
	nop
.LVL6:
.LBE103:
.LBE102:
.LBB104:
.LBB105:
	.loc 1 79 0
	ldi r22,lo8(2)
	ldi r24,lo8(66)
	call GPIO_Write_High_Nibble
.LVL7:
	.loc 1 80 0
	ldi r20,0
	ldi r22,0
	ldi r24,lo8(54)
	ldi r25,0
	call GPIO_Pin_Write
.LVL8:
.LBB106:
.LBB107:
	.loc 1 12 0
	ldi r20,lo8(1)
	ldi r22,lo8(2)
	ldi r24,lo8(54)
	ldi r25,0
	call GPIO_Pin_Write
.LVL9:
.LBB108:
.LBB109:
	.loc 2 163 0
	ldi r24,lo8(3999)
	ldi r25,hi8(3999)
	1: sbiw r24,1
	brne 1b
	rjmp .
	nop
.LBE109:
.LBE108:
	.loc 1 14 0
	ldi r20,0
	ldi r22,lo8(2)
	ldi r24,lo8(54)
	ldi r25,0
	call GPIO_Pin_Write
.LVL10:
.LBB110:
.LBB111:
	.loc 2 163 0
	ldi r24,lo8(3999)
	ldi r25,hi8(3999)
	1: sbiw r24,1
	brne 1b
	rjmp .
	nop
.LBE111:
.LBE110:
.LBE107:
.LBE106:
	.loc 1 82 0
	ldi r22,lo8(32)
	ldi r24,lo8(66)
	call GPIO_Write_High_Nibble
.LVL11:
	.loc 1 83 0
	ldi r20,0
	ldi r22,0
	ldi r24,lo8(54)
	ldi r25,0
	call GPIO_Pin_Write
.LVL12:
.LBB112:
.LBB113:
	.loc 1 12 0
	ldi r20,lo8(1)
	ldi r22,lo8(2)
	ldi r24,lo8(54)
	ldi r25,0
	call GPIO_Pin_Write
.LVL13:
.LBB114:
.LBB115:
	.loc 2 163 0
	ldi r24,lo8(3999)
	ldi r25,hi8(3999)
	1: sbiw r24,1
	brne 1b
	rjmp .
	nop
.LBE115:
.LBE114:
	.loc 1 14 0
	ldi r20,0
	ldi r22,lo8(2)
	ldi r24,lo8(54)
	ldi r25,0
	call GPIO_Pin_Write
.LVL14:
.LBB116:
.LBB117:
	.loc 2 163 0
	ldi r24,lo8(3999)
	ldi r25,hi8(3999)
	1: sbiw r24,1
	brne 1b
	rjmp .
	nop
.LVL15:
.LBE117:
.LBE116:
.LBE113:
.LBE112:
.LBB118:
.LBB119:
	ldi r24,lo8(1999)
	ldi r25,hi8(1999)
	1: sbiw r24,1
	brne 1b
	rjmp .
	nop
.LVL16:
.LBE119:
.LBE118:
.LBE105:
.LBE104:
.LBB120:
.LBB121:
	ldi r24,lo8(1999)
	ldi r25,hi8(1999)
	1: sbiw r24,1
	brne 1b
	rjmp .
	nop
.LVL17:
.LBE121:
.LBE120:
.LBB122:
.LBB123:
	.loc 1 79 0
	ldi r22,lo8(40)
	ldi r24,lo8(66)
	call GPIO_Write_High_Nibble
.LVL18:
	.loc 1 80 0
	ldi r20,0
	ldi r22,0
	ldi r24,lo8(54)
	ldi r25,0
	call GPIO_Pin_Write
.LVL19:
.LBB124:
.LBB125:
	.loc 1 12 0
	ldi r20,lo8(1)
	ldi r22,lo8(2)
	ldi r24,lo8(54)
	ldi r25,0
	call GPIO_Pin_Write
.LVL20:
.LBB126:
.LBB127:
	.loc 2 163 0
	ldi r24,lo8(3999)
	ldi r25,hi8(3999)
	1: sbiw r24,1
	brne 1b
	rjmp .
	nop
.LBE127:
.LBE126:
	.loc 1 14 0
	ldi r20,0
	ldi r22,lo8(2)
	ldi r24,lo8(54)
	ldi r25,0
	call GPIO_Pin_Write
.LVL21:
.LBB128:
.LBB129:
	.loc 2 163 0
	ldi r24,lo8(3999)
	ldi r25,hi8(3999)
	1: sbiw r24,1
	brne 1b
	rjmp .
	nop
.LBE129:
.LBE128:
.LBE125:
.LBE124:
	.loc 1 82 0
	ldi r22,lo8(-128)
	ldi r24,lo8(66)
	call GPIO_Write_High_Nibble
.LVL22:
	.loc 1 83 0
	ldi r20,0
	ldi r22,0
	ldi r24,lo8(54)
	ldi r25,0
	call GPIO_Pin_Write
.LVL23:
.LBB130:
.LBB131:
	.loc 1 12 0
	ldi r20,lo8(1)
	ldi r22,lo8(2)
	ldi r24,lo8(54)
	ldi r25,0
	call GPIO_Pin_Write
.LVL24:
.LBB132:
.LBB133:
	.loc 2 163 0
	ldi r24,lo8(3999)
	ldi r25,hi8(3999)
	1: sbiw r24,1
	brne 1b
	rjmp .
	nop
.LBE133:
.LBE132:
	.loc 1 14 0
	ldi r20,0
	ldi r22,lo8(2)
	ldi r24,lo8(54)
	ldi r25,0
	call GPIO_Pin_Write
.LVL25:
.LBB134:
.LBB135:
	.loc 2 163 0
	ldi r24,lo8(3999)
	ldi r25,hi8(3999)
	1: sbiw r24,1
	brne 1b
	rjmp .
	nop
.LVL26:
.LBE135:
.LBE134:
.LBE131:
.LBE130:
.LBB136:
.LBB137:
	ldi r24,lo8(1999)
	ldi r25,hi8(1999)
	1: sbiw r24,1
	brne 1b
	rjmp .
	nop
.LVL27:
.LBE137:
.LBE136:
.LBE123:
.LBE122:
.LBB138:
.LBB139:
	ldi r24,lo8(1999)
	ldi r25,hi8(1999)
	1: sbiw r24,1
	brne 1b
	rjmp .
	nop
.LVL28:
.LBE139:
.LBE138:
.LBB140:
.LBB141:
	.loc 1 79 0
	ldi r22,lo8(14)
	ldi r24,lo8(66)
	call GPIO_Write_High_Nibble
.LVL29:
	.loc 1 80 0
	ldi r20,0
	ldi r22,0
	ldi r24,lo8(54)
	ldi r25,0
	call GPIO_Pin_Write
.LVL30:
.LBB142:
.LBB143:
	.loc 1 12 0
	ldi r20,lo8(1)
	ldi r22,lo8(2)
	ldi r24,lo8(54)
	ldi r25,0
	call GPIO_Pin_Write
.LVL31:
.LBB144:
.LBB145:
	.loc 2 163 0
	ldi r24,lo8(3999)
	ldi r25,hi8(3999)
	1: sbiw r24,1
	brne 1b
	rjmp .
	nop
.LBE145:
.LBE144:
	.loc 1 14 0
	ldi r20,0
	ldi r22,lo8(2)
	ldi r24,lo8(54)
	ldi r25,0
	call GPIO_Pin_Write
.LVL32:
.LBB146:
.LBB147:
	.loc 2 163 0
	ldi r24,lo8(3999)
	ldi r25,hi8(3999)
	1: sbiw r24,1
	brne 1b
	rjmp .
	nop
.LBE147:
.LBE146:
.LBE143:
.LBE142:
	.loc 1 82 0
	ldi r22,lo8(-32)
	ldi r24,lo8(66)
	call GPIO_Write_High_Nibble
.LVL33:
	.loc 1 83 0
	ldi r20,0
	ldi r22,0
	ldi r24,lo8(54)
	ldi r25,0
	call GPIO_Pin_Write
.LVL34:
.LBB148:
.LBB149:
	.loc 1 12 0
	ldi r20,lo8(1)
	ldi r22,lo8(2)
	ldi r24,lo8(54)
	ldi r25,0
	call GPIO_Pin_Write
.LVL35:
.LBB150:
.LBB151:
	.loc 2 163 0
	ldi r24,lo8(3999)
	ldi r25,hi8(3999)
	1: sbiw r24,1
	brne 1b
	rjmp .
	nop
.LBE151:
.LBE150:
	.loc 1 14 0
	ldi r20,0
	ldi r22,lo8(2)
	ldi r24,lo8(54)
	ldi r25,0
	call GPIO_Pin_Write
.LVL36:
.LBB152:
.LBB153:
	.loc 2 163 0
	ldi r24,lo8(3999)
	ldi r25,hi8(3999)
	1: sbiw r24,1
	brne 1b
	rjmp .
	nop
.LVL37:
.LBE153:
.LBE152:
.LBE149:
.LBE148:
.LBB154:
.LBB155:
	ldi r24,lo8(1999)
	ldi r25,hi8(1999)
	1: sbiw r24,1
	brne 1b
	rjmp .
	nop
.LVL38:
.LBE155:
.LBE154:
.LBE141:
.LBE140:
.LBB156:
.LBB157:
	ldi r24,lo8(1999)
	ldi r25,hi8(1999)
	1: sbiw r24,1
	brne 1b
	rjmp .
	nop
.LVL39:
.LBE157:
.LBE156:
.LBB158:
.LBB159:
	.loc 1 79 0
	ldi r22,lo8(1)
	ldi r24,lo8(66)
	call GPIO_Write_High_Nibble
.LVL40:
	.loc 1 80 0
	ldi r20,0
	ldi r22,0
	ldi r24,lo8(54)
	ldi r25,0
	call GPIO_Pin_Write
.LVL41:
.LBB160:
.LBB161:
	.loc 1 12 0
	ldi r20,lo8(1)
	ldi r22,lo8(2)
	ldi r24,lo8(54)
	ldi r25,0
	call GPIO_Pin_Write
.LVL42:
.LBB162:
.LBB163:
	.loc 2 163 0
	ldi r24,lo8(3999)
	ldi r25,hi8(3999)
	1: sbiw r24,1
	brne 1b
	rjmp .
	nop
.LBE163:
.LBE162:
	.loc 1 14 0
	ldi r20,0
	ldi r22,lo8(2)
	ldi r24,lo8(54)
	ldi r25,0
	call GPIO_Pin_Write
.LVL43:
.LBB164:
.LBB165:
	.loc 2 163 0
	ldi r24,lo8(3999)
	ldi r25,hi8(3999)
	1: sbiw r24,1
	brne 1b
	rjmp .
	nop
.LBE165:
.LBE164:
.LBE161:
.LBE160:
	.loc 1 82 0
	ldi r22,lo8(16)
	ldi r24,lo8(66)
	call GPIO_Write_High_Nibble
.LVL44:
	.loc 1 83 0
	ldi r20,0
	ldi r22,0
	ldi r24,lo8(54)
	ldi r25,0
	call GPIO_Pin_Write
.LVL45:
.LBB166:
.LBB167:
	.loc 1 12 0
	ldi r20,lo8(1)
	ldi r22,lo8(2)
	ldi r24,lo8(54)
	ldi r25,0
	call GPIO_Pin_Write
.LVL46:
.LBB168:
.LBB169:
	.loc 2 163 0
	ldi r24,lo8(3999)
	ldi r25,hi8(3999)
	1: sbiw r24,1
	brne 1b
	rjmp .
	nop
.LBE169:
.LBE168:
	.loc 1 14 0
	ldi r20,0
	ldi r22,lo8(2)
	ldi r24,lo8(54)
	ldi r25,0
	call GPIO_Pin_Write
.LVL47:
.LBB170:
.LBB171:
	.loc 2 163 0
	ldi r24,lo8(3999)
	ldi r25,hi8(3999)
	1: sbiw r24,1
	brne 1b
	rjmp .
	nop
.LVL48:
.LBE171:
.LBE170:
.LBE167:
.LBE166:
.LBB172:
.LBB173:
	ldi r24,lo8(1999)
	ldi r25,hi8(1999)
	1: sbiw r24,1
	brne 1b
	rjmp .
	nop
.LVL49:
.LBE173:
.LBE172:
.LBE159:
.LBE158:
.LBB174:
.LBB175:
	ldi r24,lo8(19999)
	ldi r25,hi8(19999)
	1: sbiw r24,1
	brne 1b
	rjmp .
	nop
	ret
.LBE175:
.LBE174:
	.cfi_endproc
.LFE7:
	.size	LCD_Init, .-LCD_Init
	.section	.text.Send_Command_LCD,"ax",@progbits
.global	Send_Command_LCD
	.type	Send_Command_LCD, @function
Send_Command_LCD:
.LFB8:
	.loc 1 71 0
	.cfi_startproc
.LVL50:
	push r28
.LCFI0:
	.cfi_def_cfa_offset 3
	.cfi_offset 28, -2
/* prologue: function */
/* frame size = 0 */
/* stack size = 1 */
.L__stack_usage = 1
	mov r28,r24
	.loc 1 79 0
	mov r22,r24
	ldi r24,lo8(66)
.LVL51:
	call GPIO_Write_High_Nibble
.LVL52:
	.loc 1 80 0
	ldi r20,0
	ldi r22,0
	ldi r24,lo8(54)
	ldi r25,0
	call GPIO_Pin_Write
.LVL53:
.LBB192:
.LBB193:
	.loc 1 12 0
	ldi r20,lo8(1)
	ldi r22,lo8(2)
	ldi r24,lo8(54)
	ldi r25,0
	call GPIO_Pin_Write
.LVL54:
.LBB194:
.LBB195:
	.loc 2 163 0
	ldi r24,lo8(3999)
	ldi r25,hi8(3999)
	1: sbiw r24,1
	brne 1b
	rjmp .
	nop
.LBE195:
.LBE194:
	.loc 1 14 0
	ldi r20,0
	ldi r22,lo8(2)
	ldi r24,lo8(54)
	ldi r25,0
	call GPIO_Pin_Write
.LVL55:
.LBB196:
.LBB197:
	.loc 2 163 0
	ldi r24,lo8(3999)
	ldi r25,hi8(3999)
	1: sbiw r24,1
	brne 1b
	rjmp .
	nop
.LBE197:
.LBE196:
.LBE193:
.LBE192:
	.loc 1 82 0
	mov r22,r28
	swap r22
	andi r22,lo8(-16)
	ldi r24,lo8(66)
	call GPIO_Write_High_Nibble
.LVL56:
	.loc 1 83 0
	ldi r20,0
	ldi r22,0
	ldi r24,lo8(54)
	ldi r25,0
	call GPIO_Pin_Write
.LVL57:
.LBB198:
.LBB199:
	.loc 1 12 0
	ldi r20,lo8(1)
	ldi r22,lo8(2)
	ldi r24,lo8(54)
	ldi r25,0
	call GPIO_Pin_Write
.LVL58:
.LBB200:
.LBB201:
	.loc 2 163 0
	ldi r24,lo8(3999)
	ldi r25,hi8(3999)
	1: sbiw r24,1
	brne 1b
	rjmp .
	nop
.LBE201:
.LBE200:
	.loc 1 14 0
	ldi r20,0
	ldi r22,lo8(2)
	ldi r24,lo8(54)
	ldi r25,0
	call GPIO_Pin_Write
.LVL59:
.LBB202:
.LBB203:
	.loc 2 163 0
	ldi r24,lo8(3999)
	ldi r25,hi8(3999)
	1: sbiw r24,1
	brne 1b
	rjmp .
	nop
.LVL60:
.LBE203:
.LBE202:
.LBE199:
.LBE198:
.LBB204:
.LBB205:
	ldi r24,lo8(1999)
	ldi r25,hi8(1999)
	1: sbiw r24,1
	brne 1b
	rjmp .
	nop
/* epilogue start */
.LBE205:
.LBE204:
	.loc 1 96 0
	pop r28
.LVL61:
	ret
	.cfi_endproc
.LFE8:
	.size	Send_Command_LCD, .-Send_Command_LCD
	.section	.text.Send_char_LCD,"ax",@progbits
.global	Send_char_LCD
	.type	Send_char_LCD, @function
Send_char_LCD:
.LFB9:
	.loc 1 98 0
	.cfi_startproc
.LVL62:
	push r28
.LCFI1:
	.cfi_def_cfa_offset 3
	.cfi_offset 28, -2
/* prologue: function */
/* frame size = 0 */
/* stack size = 1 */
.L__stack_usage = 1
	mov r28,r24
	.loc 1 105 0
	mov r22,r24
	ldi r24,lo8(66)
.LVL63:
	call GPIO_Write_High_Nibble
.LVL64:
	.loc 1 106 0
	ldi r20,lo8(1)
	ldi r22,0
	ldi r24,lo8(54)
	ldi r25,0
	call GPIO_Pin_Write
.LVL65:
.LBB222:
.LBB223:
	.loc 1 12 0
	ldi r20,lo8(1)
	ldi r22,lo8(2)
	ldi r24,lo8(54)
	ldi r25,0
	call GPIO_Pin_Write
.LVL66:
.LBB224:
.LBB225:
	.loc 2 163 0
	ldi r24,lo8(3999)
	ldi r25,hi8(3999)
	1: sbiw r24,1
	brne 1b
	rjmp .
	nop
.LBE225:
.LBE224:
	.loc 1 14 0
	ldi r20,0
	ldi r22,lo8(2)
	ldi r24,lo8(54)
	ldi r25,0
	call GPIO_Pin_Write
.LVL67:
.LBB226:
.LBB227:
	.loc 2 163 0
	ldi r24,lo8(3999)
	ldi r25,hi8(3999)
	1: sbiw r24,1
	brne 1b
	rjmp .
	nop
.LBE227:
.LBE226:
.LBE223:
.LBE222:
	.loc 1 108 0
	mov r22,r28
	swap r22
	andi r22,lo8(-16)
	ldi r24,lo8(66)
	call GPIO_Write_High_Nibble
.LVL68:
	.loc 1 109 0
	ldi r20,lo8(1)
	ldi r22,0
	ldi r24,lo8(54)
	ldi r25,0
	call GPIO_Pin_Write
.LVL69:
.LBB228:
.LBB229:
	.loc 1 12 0
	ldi r20,lo8(1)
	ldi r22,lo8(2)
	ldi r24,lo8(54)
	ldi r25,0
	call GPIO_Pin_Write
.LVL70:
.LBB230:
.LBB231:
	.loc 2 163 0
	ldi r24,lo8(3999)
	ldi r25,hi8(3999)
	1: sbiw r24,1
	brne 1b
	rjmp .
	nop
.LBE231:
.LBE230:
	.loc 1 14 0
	ldi r20,0
	ldi r22,lo8(2)
	ldi r24,lo8(54)
	ldi r25,0
	call GPIO_Pin_Write
.LVL71:
.LBB232:
.LBB233:
	.loc 2 163 0
	ldi r24,lo8(3999)
	ldi r25,hi8(3999)
	1: sbiw r24,1
	brne 1b
	rjmp .
	nop
.LVL72:
.LBE233:
.LBE232:
.LBE229:
.LBE228:
.LBB234:
.LBB235:
	ldi r24,lo8(1999)
	ldi r25,hi8(1999)
	1: sbiw r24,1
	brne 1b
	rjmp .
	nop
/* epilogue start */
.LBE235:
.LBE234:
	.loc 1 122 0
	pop r28
.LVL73:
	ret
	.cfi_endproc
.LFE9:
	.size	Send_char_LCD, .-Send_char_LCD
	.section	.text.Move_Curser_LCD,"ax",@progbits
.global	Move_Curser_LCD
	.type	Move_Curser_LCD, @function
Move_Curser_LCD:
.LFB10:
	.loc 1 124 0
	.cfi_startproc
.LVL74:
	push r28
.LCFI2:
	.cfi_def_cfa_offset 3
	.cfi_offset 28, -2
/* prologue: function */
/* frame size = 0 */
/* stack size = 1 */
.L__stack_usage = 1
	.loc 1 126 0
	cpi r24,lo8(1)
	brne .+2
	rjmp .L6
	cpi r24,lo8(2)
	breq .+2
	rjmp .L4
	.loc 1 136 0
	ldi r24,lo8(-1)
.LVL75:
	add r24,r22
	cpi r24,lo8(16)
	brsh .+2
	rjmp .L13
.L11:
	ldi r28,0
	.loc 1 139 0
	ldi r22,lo8(-128)
.LVL76:
.L9:
.LBB268:
.LBB269:
	.loc 1 79 0
	ldi r24,lo8(66)
	call GPIO_Write_High_Nibble
.LVL77:
	.loc 1 80 0
	ldi r20,0
	ldi r22,0
	ldi r24,lo8(54)
	ldi r25,0
	call GPIO_Pin_Write
.LVL78:
.LBB270:
.LBB271:
	.loc 1 12 0
	ldi r20,lo8(1)
	ldi r22,lo8(2)
	ldi r24,lo8(54)
	ldi r25,0
	call GPIO_Pin_Write
.LVL79:
.LBB272:
.LBB273:
	.loc 2 163 0
	ldi r24,lo8(3999)
	ldi r25,hi8(3999)
	1: sbiw r24,1
	brne 1b
	rjmp .
	nop
.LBE273:
.LBE272:
	.loc 1 14 0
	ldi r20,0
	ldi r22,lo8(2)
	ldi r24,lo8(54)
	ldi r25,0
	call GPIO_Pin_Write
.LVL80:
.LBB274:
.LBB275:
	.loc 2 163 0
	ldi r24,lo8(3999)
	ldi r25,hi8(3999)
	1: sbiw r24,1
	brne 1b
	rjmp .
	nop
.LBE275:
.LBE274:
.LBE271:
.LBE270:
	.loc 1 82 0
	mov r22,r28
	ldi r24,lo8(66)
	call GPIO_Write_High_Nibble
.LVL81:
	.loc 1 83 0
	ldi r20,0
	ldi r22,0
	ldi r24,lo8(54)
	ldi r25,0
	call GPIO_Pin_Write
.LVL82:
.LBB276:
.LBB277:
	.loc 1 12 0
	ldi r20,lo8(1)
	ldi r22,lo8(2)
	ldi r24,lo8(54)
	ldi r25,0
	call GPIO_Pin_Write
.LVL83:
.LBB278:
.LBB279:
	.loc 2 163 0
	ldi r24,lo8(3999)
	ldi r25,hi8(3999)
	1: sbiw r24,1
	brne 1b
	rjmp .
	nop
.LBE279:
.LBE278:
	.loc 1 14 0
	ldi r20,0
	ldi r22,lo8(2)
	ldi r24,lo8(54)
	ldi r25,0
	call GPIO_Pin_Write
.LVL84:
.LBB280:
.LBB281:
	.loc 2 163 0
	ldi r24,lo8(3999)
	ldi r25,hi8(3999)
	1: sbiw r24,1
	brne 1b
	rjmp .
	nop
.LVL85:
.LBE281:
.LBE280:
.LBE277:
.LBE276:
.LBB282:
.LBB283:
	ldi r24,lo8(1999)
	ldi r25,hi8(1999)
	1: sbiw r24,1
	brne 1b
	rjmp .
	nop
.LVL86:
.L4:
/* epilogue start */
.LBE283:
.LBE282:
.LBE269:
.LBE268:
	.loc 1 146 0
	pop r28
	ret
.LVL87:
.L6:
	.loc 1 129 0
	ldi r24,lo8(-1)
.LVL88:
	add r24,r22
	cpi r24,lo8(16)
	brlo .+2
	rjmp .L11
	.loc 1 130 0
	subi r22,lo8(-(127))
.LVL89:
	mov r28,r22
	swap r28
	andi r28,lo8(-16)
	rjmp .L9
.LVL90:
.L13:
	.loc 1 137 0
	subi r22,lo8(-(-65))
.LVL91:
	mov r28,r22
	swap r28
	andi r28,lo8(-16)
	rjmp .L9
	.cfi_endproc
.LFE10:
	.size	Move_Curser_LCD, .-Move_Curser_LCD
	.section	.text.Clear_LCD,"ax",@progbits
.global	Clear_LCD
	.type	Clear_LCD, @function
Clear_LCD:
.LFB11:
	.loc 1 148 0
	.cfi_startproc
/* prologue: function */
/* frame size = 0 */
/* stack size = 0 */
.L__stack_usage = 0
.LVL92:
.LBB302:
.LBB303:
	.loc 1 79 0
	ldi r22,lo8(1)
	ldi r24,lo8(66)
	call GPIO_Write_High_Nibble
.LVL93:
	.loc 1 80 0
	ldi r20,0
	ldi r22,0
	ldi r24,lo8(54)
	ldi r25,0
	call GPIO_Pin_Write
.LVL94:
.LBB304:
.LBB305:
	.loc 1 12 0
	ldi r20,lo8(1)
	ldi r22,lo8(2)
	ldi r24,lo8(54)
	ldi r25,0
	call GPIO_Pin_Write
.LVL95:
.LBB306:
.LBB307:
	.loc 2 163 0
	ldi r24,lo8(3999)
	ldi r25,hi8(3999)
	1: sbiw r24,1
	brne 1b
	rjmp .
	nop
.LBE307:
.LBE306:
	.loc 1 14 0
	ldi r20,0
	ldi r22,lo8(2)
	ldi r24,lo8(54)
	ldi r25,0
	call GPIO_Pin_Write
.LVL96:
.LBB308:
.LBB309:
	.loc 2 163 0
	ldi r24,lo8(3999)
	ldi r25,hi8(3999)
	1: sbiw r24,1
	brne 1b
	rjmp .
	nop
.LBE309:
.LBE308:
.LBE305:
.LBE304:
	.loc 1 82 0
	ldi r22,lo8(16)
	ldi r24,lo8(66)
	call GPIO_Write_High_Nibble
.LVL97:
	.loc 1 83 0
	ldi r20,0
	ldi r22,0
	ldi r24,lo8(54)
	ldi r25,0
	call GPIO_Pin_Write
.LVL98:
.LBB310:
.LBB311:
	.loc 1 12 0
	ldi r20,lo8(1)
	ldi r22,lo8(2)
	ldi r24,lo8(54)
	ldi r25,0
	call GPIO_Pin_Write
.LVL99:
.LBB312:
.LBB313:
	.loc 2 163 0
	ldi r24,lo8(3999)
	ldi r25,hi8(3999)
	1: sbiw r24,1
	brne 1b
	rjmp .
	nop
.LBE313:
.LBE312:
	.loc 1 14 0
	ldi r20,0
	ldi r22,lo8(2)
	ldi r24,lo8(54)
	ldi r25,0
	call GPIO_Pin_Write
.LVL100:
.LBB314:
.LBB315:
	.loc 2 163 0
	ldi r24,lo8(3999)
	ldi r25,hi8(3999)
	1: sbiw r24,1
	brne 1b
	rjmp .
	nop
.LVL101:
.LBE315:
.LBE314:
.LBE311:
.LBE310:
.LBB316:
.LBB317:
	ldi r24,lo8(1999)
	ldi r25,hi8(1999)
	1: sbiw r24,1
	brne 1b
	rjmp .
	nop
.LVL102:
.LBE317:
.LBE316:
.LBE303:
.LBE302:
.LBB318:
.LBB319:
	ldi r24,lo8(19999)
	ldi r25,hi8(19999)
	1: sbiw r24,1
	brne 1b
	rjmp .
	nop
	ret
.LBE319:
.LBE318:
	.cfi_endproc
.LFE11:
	.size	Clear_LCD, .-Clear_LCD
	.section	.text.Send_String_LCD,"ax",@progbits
.global	Send_String_LCD
	.type	Send_String_LCD, @function
Send_String_LCD:
.LFB12:
	.loc 1 153 0
	.cfi_startproc
.LVL103:
	push r17
.LCFI3:
	.cfi_def_cfa_offset 3
	.cfi_offset 17, -2
	push r28
.LCFI4:
	.cfi_def_cfa_offset 4
	.cfi_offset 28, -3
	push r29
.LCFI5:
	.cfi_def_cfa_offset 5
	.cfi_offset 29, -4
/* prologue: function */
/* frame size = 0 */
/* stack size = 3 */
.L__stack_usage = 3
	.loc 1 154 0
	movw r30,r24
	ld r17,Z
	tst r17
	brne .+2
	rjmp .L15
	movw r28,r24
	adiw r28,1
.LVL104:
.L18:
.LBB336:
.LBB337:
	.loc 1 105 0
	mov r22,r17
	ldi r24,lo8(66)
	call GPIO_Write_High_Nibble
.LVL105:
	.loc 1 106 0
	ldi r20,lo8(1)
	ldi r22,0
	ldi r24,lo8(54)
	ldi r25,0
	call GPIO_Pin_Write
.LVL106:
.LBB338:
.LBB339:
	.loc 1 12 0
	ldi r20,lo8(1)
	ldi r22,lo8(2)
	ldi r24,lo8(54)
	ldi r25,0
	call GPIO_Pin_Write
.LVL107:
.LBB340:
.LBB341:
	.loc 2 163 0
	ldi r24,lo8(3999)
	ldi r25,hi8(3999)
	1: sbiw r24,1
	brne 1b
	rjmp .
	nop
.LBE341:
.LBE340:
	.loc 1 14 0
	ldi r20,0
	ldi r22,lo8(2)
	ldi r24,lo8(54)
	ldi r25,0
	call GPIO_Pin_Write
.LVL108:
.LBB342:
.LBB343:
	.loc 2 163 0
	ldi r30,lo8(3999)
	ldi r31,hi8(3999)
	1: sbiw r30,1
	brne 1b
	rjmp .
	nop
.LBE343:
.LBE342:
.LBE339:
.LBE338:
	.loc 1 108 0
	mov r22,r17
	swap r22
	andi r22,lo8(-16)
	ldi r24,lo8(66)
	call GPIO_Write_High_Nibble
.LVL109:
	.loc 1 109 0
	ldi r20,lo8(1)
	ldi r22,0
	ldi r24,lo8(54)
	ldi r25,0
	call GPIO_Pin_Write
.LVL110:
.LBB344:
.LBB345:
	.loc 1 12 0
	ldi r20,lo8(1)
	ldi r22,lo8(2)
	ldi r24,lo8(54)
	ldi r25,0
	call GPIO_Pin_Write
.LVL111:
.LBB346:
.LBB347:
	.loc 2 163 0
	ldi r24,lo8(3999)
	ldi r25,hi8(3999)
	1: sbiw r24,1
	brne 1b
	rjmp .
	nop
.LBE347:
.LBE346:
	.loc 1 14 0
	ldi r20,0
	ldi r22,lo8(2)
	ldi r24,lo8(54)
	ldi r25,0
	call GPIO_Pin_Write
.LVL112:
.LBB348:
.LBB349:
	.loc 2 163 0
	ldi r30,lo8(3999)
	ldi r31,hi8(3999)
	1: sbiw r30,1
	brne 1b
	rjmp .
	nop
.LVL113:
.LBE349:
.LBE348:
.LBE345:
.LBE344:
.LBB350:
.LBB351:
	ldi r24,lo8(1999)
	ldi r25,hi8(1999)
	1: sbiw r24,1
	brne 1b
	rjmp .
	nop
.LVL114:
.LBE351:
.LBE350:
.LBE337:
.LBE336:
	.loc 1 154 0
	ld r17,Y+
.LVL115:
	cpse r17,__zero_reg__
	rjmp .L18
.LVL116:
.L15:
/* epilogue start */
	.loc 1 159 0
	pop r29
	pop r28
	pop r17
	ret
	.cfi_endproc
.LFE12:
	.size	Send_String_LCD, .-Send_String_LCD
	.text
.Letext0:
	.file 3 "../Services/AVR_32_Registers.h"
	.file 4 "../Services/STD_Types.h"
	.file 5 "../MCAL/DIO/GPIO.h"
	.file 6 "c:\\program files (x86)\\atmel\\atmel toolchain\\avr8 gcc\\native\\3.4.1061\\avr8-gnu-toolchain\\avr\\include\\stdint.h"