	.file	"Timer_CTC_APP.c"
__SP_H__ = 0x3e
__SP_L__ = 0x3d
__SREG__ = 0x3f
__tmp_reg__ = 0
__zero_reg__ = 1
	.text
.Ltext0:
	.cfi_sections	.debug_frame
	.section	.text.LED_Control,"ax",@progbits
.global	LED_Control
	.type	LED_Control, @function
LED_Control:
.LFB1:
	.file 1 "../APP/Timer_CTC_APP/Timer_CTC_APP.c"
	.loc 1 24 0
	.cfi_startproc
/* prologue: function */
/* frame size = 0 */
/* stack size = 0 */
.L__stack_usage = 0
	.loc 1 26 0
	lds r24,counter.1629
	lds r25,counter.1629+1
	adiw r24,1
	sts counter.1629+1,r25
	sts counter.1629,r24
	.loc 1 27 0
	cpi r24,-96
	sbci r25,15
	breq .L4
	ret
.L4:
	.loc 1 29 0
	lds r22,LED_
	lds r23,LED_+1
	lds r24,LED_+2
	lds r25,LED_+3
	jmp Led_Toggle
.LVL0:
	.cfi_endproc
.LFE1:
	.size	LED_Control, .-LED_Control
	.section	.text.Timer_CTC_APP_Init,"ax",@progbits
.global	Timer_CTC_APP_Init
	.type	Timer_CTC_APP_Init, @function
Timer_CTC_APP_Init:
.LFB0:
	.loc 1 16 0
	.cfi_startproc
	push r28
.LCFI0:
	.cfi_def_cfa_offset 3
	.cfi_offset 28, -2
	push r29
.LCFI1:
	.cfi_def_cfa_offset 4
	.cfi_offset 29, -3
	rcall .
	rcall .
	push __zero_reg__
.LCFI2:
	.cfi_def_cfa_offset 9
	in r28,__SP_L__
	in r29,__SP_H__
.LCFI3:
	.cfi_def_cfa_register 28
/* prologue: function */
/* frame size = 5 */
/* stack size = 7 */
.L__stack_usage = 7
	.loc 1 17 0
	movw r30,r28
	adiw r30,1
	ldi r24,lo8(5)
	movw r26,r30
	0:
	st X+,__zero_reg__
	dec r24
	brne 0b
	ldi r24,lo8(1)
	std Y+2,r24
	ldi r24,lo8(2)
	std Y+3,r24
	std Y+4,r24
	.loc 1 18 0
	lds r22,LED_
	lds r23,LED_+1
	lds r24,LED_+2
	lds r25,LED_+3
	call Led_Start
.LVL1:
	.loc 1 19 0
	ldi r18,lo8(-6)
	ldd r20,Y+1
	ldd r21,Y+2
	ldd r22,Y+3
	ldd r23,Y+4
	ldd r24,Y+5
	call TIMER_Init
.LVL2:
	.loc 1 20 0
	ldi r24,lo8(gs(LED_Control))
	ldi r25,hi8(gs(LED_Control))
/* epilogue start */
	.loc 1 22 0
	pop __tmp_reg__
	pop __tmp_reg__
	pop __tmp_reg__
	pop __tmp_reg__
	pop __tmp_reg__
	pop r29
	pop r28
	.loc 1 20 0
	jmp Timer0_CompareMatch_Callback
.LVL3:
	.cfi_endproc
.LFE0:
	.size	Timer_CTC_APP_Init, .-Timer_CTC_APP_Init
	.section	.bss.counter.1629,"aw",@nobits
	.type	counter.1629, @object
	.size	counter.1629, 2
counter.1629:
	.zero	2
.global	LED_
	.section	.data.LED_,"aw",@progbits
	.type	LED_, @object
	.size	LED_, 4
LED_:
	.word	48
	.byte	0
	.byte	0
	.text
.Letext0:
	.file 2 "../Services/STD_Types.h"
	.file 3 "../Services/AVR_32_Registers.h"
	.file 4 "../MCAL/DIO/GPIO.h"
	.file 5 "../MCAL/Timer 0,2/Timer0.h"
	.file 6 "../HAL/LED_File/LED.h"