	.file	"Timer0.c"
__SP_H__ = 0x3e
__SP_L__ = 0x3d
__SREG__ = 0x3f
__tmp_reg__ = 0
__zero_reg__ = 1
	.text
.Ltext0:
	.cfi_sections	.debug_frame
	.section	.text.Timer0_OverFlow_Callback,"ax",@progbits
.global	Timer0_OverFlow_Callback
	.type	Timer0_OverFlow_Callback, @function
Timer0_OverFlow_Callback:
.LFB0:
	.file 1 "../MCAL/Timer 0,2/Timer0.c"
	.loc 1 19 0
	.cfi_startproc
.LVL0:
/* prologue: function */
/* frame size = 0 */
/* stack size = 0 */
.L__stack_usage = 0
	.loc 1 20 0
	sbiw r24,0
	breq .L1
	.loc 1 22 0
	sts CP_TIMER0_Overflow_User_ptr+1,r25
	sts CP_TIMER0_Overflow_User_ptr,r24
.L1:
	ret
	.cfi_endproc
.LFE0:
	.size	Timer0_OverFlow_Callback, .-Timer0_OverFlow_Callback
	.section	.text.Timer0_CompareMatch_Callback,"ax",@progbits
.global	Timer0_CompareMatch_Callback
	.type	Timer0_CompareMatch_Callback, @function
Timer0_CompareMatch_Callback:
.LFB1:
	.loc 1 26 0
	.cfi_startproc
.LVL1:
/* prologue: function */
/* frame size = 0 */
/* stack size = 0 */
.L__stack_usage = 0
	.loc 1 27 0
	sbiw r24,0
	breq .L7
	.loc 1 29 0
	sts CP_TIMER0_CompareMatch_User_ptr+1,r25
	sts CP_TIMER0_CompareMatch_User_ptr,r24
.L7:
	ret
	.cfi_endproc
.LFE1:
	.size	Timer0_CompareMatch_Callback, .-Timer0_CompareMatch_Callback
	.section	.text.Timer2_OverFlow_Callback,"ax",@progbits
.global	Timer2_OverFlow_Callback
	.type	Timer2_OverFlow_Callback, @function
Timer2_OverFlow_Callback:
.LFB2:
	.loc 1 34 0
	.cfi_startproc
.LVL2:
/* prologue: function */
/* frame size = 0 */
/* stack size = 0 */
.L__stack_usage = 0
	.loc 1 35 0
	sbiw r24,0
	breq .L12
	.loc 1 37 0
	sts CP_TIMER2_Overflow_User_ptr+1,r25
	sts CP_TIMER2_Overflow_User_ptr,r24
.L12:
	ret
	.cfi_endproc
.LFE2:
	.size	Timer2_OverFlow_Callback, .-Timer2_OverFlow_Callback
	.section	.text.Timer2_CompareMatch_Callback,"ax",@progbits
.global	Timer2_CompareMatch_Callback
	.type	Timer2_CompareMatch_Callback, @function
Timer2_CompareMatch_Callback:
.LFB3:
	.loc 1 41 0
	.cfi_startproc
.LVL3:
/* prologue: function */
/* frame size = 0 */
/* stack size = 0 */
.L__stack_usage = 0
	.loc 1 42 0
	sbiw r24,0
	breq .L17
	.loc 1 44 0
	sts CP_TIMER2_CompareMatch_User_ptr+1,r25
	sts CP_TIMER2_CompareMatch_User_ptr,r24
.L17:
	ret
	.cfi_endproc
.LFE3:
	.size	Timer2_CompareMatch_Callback, .-Timer2_CompareMatch_Callback
	.section	.text.__vector_10,"ax",@progbits
.global	__vector_10
	.type	__vector_10, @function
__vector_10:
.LFB4:
	.loc 1 49 0
	.cfi_startproc
	push r1
.LCFI0:
	.cfi_def_cfa_offset 3
	.cfi_offset 1, -2
	push r0
.LCFI1:
	.cfi_def_cfa_offset 4
	.cfi_offset 0, -3
	in r0,__SREG__
	push r0
	clr __zero_reg__
	push r18
.LCFI2:
	.cfi_def_cfa_offset 5
	.cfi_offset 18, -4
	push r19
.LCFI3:
	.cfi_def_cfa_offset 6
	.cfi_offset 19, -5
	push r20
.LCFI4:
	.cfi_def_cfa_offset 7
	.cfi_offset 20, -6
	push r21
.LCFI5:
	.cfi_def_cfa_offset 8
	.cfi_offset 21, -7
	push r22
.LCFI6:
	.cfi_def_cfa_offset 9
	.cfi_offset 22, -8
	push r23
.LCFI7:
	.cfi_def_cfa_offset 10
	.cfi_offset 23, -9
	push r24
.LCFI8:
	.cfi_def_cfa_offset 11
	.cfi_offset 24, -10
	push r25
.LCFI9:
	.cfi_def_cfa_offset 12
	.cfi_offset 25, -11
	push r26
.LCFI10:
	.cfi_def_cfa_offset 13
	.cfi_offset 26, -12
	push r27
.LCFI11:
	.cfi_def_cfa_offset 14
	.cfi_offset 27, -13
	push r30
.LCFI12:
	.cfi_def_cfa_offset 15
	.cfi_offset 30, -14
	push r31
.LCFI13:
	.cfi_def_cfa_offset 16
	.cfi_offset 31, -15
/* prologue: Signal */
/* frame size = 0 */
/* stack size = 15 */
.L__stack_usage = 15
	.loc 1 50 0
	lds r30,CP_TIMER0_CompareMatch_User_ptr
	lds r31,CP_TIMER0_CompareMatch_User_ptr+1
	sbiw r30,0
	breq .L22
	.loc 1 52 0
	icall
.LVL4:
.L22:
/* epilogue start */
	.loc 1 54 0
	pop r31
	pop r30
	pop r27
	pop r26
	pop r25
	pop r24
	pop r23
	pop r22
	pop r21
	pop r20
	pop r19
	pop r18
	pop r0
	out __SREG__,r0
	pop r0
	pop r1
	reti
	.cfi_endproc
.LFE4:
	.size	__vector_10, .-__vector_10
	.section	.text.__vector_11,"ax",@progbits
.global	__vector_11
	.type	__vector_11, @function
__vector_11:
.LFB5:
	.loc 1 56 0
	.cfi_startproc
	push r1
.LCFI14:
	.cfi_def_cfa_offset 3
	.cfi_offset 1, -2
	push r0
.LCFI15:
	.cfi_def_cfa_offset 4
	.cfi_offset 0, -3
	in r0,__SREG__
	push r0
	clr __zero_reg__
	push r18
.LCFI16:
	.cfi_def_cfa_offset 5
	.cfi_offset 18, -4
	push r19
.LCFI17:
	.cfi_def_cfa_offset 6
	.cfi_offset 19, -5
	push r20
.LCFI18:
	.cfi_def_cfa_offset 7
	.cfi_offset 20, -6
	push r21
.LCFI19:
	.cfi_def_cfa_offset 8
	.cfi_offset 21, -7
	push r22
.LCFI20:
	.cfi_def_cfa_offset 9
	.cfi_offset 22, -8
	push r23
.LCFI21:
	.cfi_def_cfa_offset 10
	.cfi_offset 23, -9
	push r24
.LCFI22:
	.cfi_def_cfa_offset 11
	.cfi_offset 24, -10
	push r25
.LCFI23:
	.cfi_def_cfa_offset 12
	.cfi_offset 25, -11
	push r26
.LCFI24:
	.cfi_def_cfa_offset 13
	.cfi_offset 26, -12
	push r27
.LCFI25:
	.cfi_def_cfa_offset 14
	.cfi_offset 27, -13
	push r30
.LCFI26:
	.cfi_def_cfa_offset 15
	.cfi_offset 30, -14
	push r31
.LCFI27:
	.cfi_def_cfa_offset 16
	.cfi_offset 31, -15
/* prologue: Signal */
/* frame size = 0 */
/* stack size = 15 */
.L__stack_usage = 15
	.loc 1 57 0
	lds r30,CP_TIMER0_Overflow_User_ptr
	lds r31,CP_TIMER0_Overflow_User_ptr+1
	sbiw r30,0
	breq .L27
	.loc 1 59 0
	icall
.LVL5:
.L27:
/* epilogue start */
	.loc 1 61 0
	pop r31
	pop r30
	pop r27
	pop r26
	pop r25
	pop r24
	pop r23
	pop r22
	pop r21
	pop r20
	pop r19
	pop r18
	pop r0
	out __SREG__,r0
	pop r0
	pop r1
	reti
	.cfi_endproc
.LFE5:
	.size	__vector_11, .-__vector_11
	.section	.text.__vector_5,"ax",@progbits
.global	__vector_5
	.type	__vector_5, @function
__vector_5:
.LFB6:
	.loc 1 63 0
	.cfi_startproc
	push r1
.LCFI28:
	.cfi_def_cfa_offset 3
	.cfi_offset 1, -2
	push r0
.LCFI29:
	.cfi_def_cfa_offset 4
	.cfi_offset 0, -3
	in r0,__SREG__
	push r0
	clr __zero_reg__
	push r18
.LCFI30:
	.cfi_def_cfa_offset 5
	.cfi_offset 18, -4
	push r19
.LCFI31:
	.cfi_def_cfa_offset 6
	.cfi_offset 19, -5
	push r20
.LCFI32:
	.cfi_def_cfa_offset 7
	.cfi_offset 20, -6
	push r21
.LCFI33:
	.cfi_def_cfa_offset 8
	.cfi_offset 21, -7
	push r22
.LCFI34:
	.cfi_def_cfa_offset 9
	.cfi_offset 22, -8
	push r23
.LCFI35:
	.cfi_def_cfa_offset 10
	.cfi_offset 23, -9
	push r24
.LCFI36:
	.cfi_def_cfa_offset 11
	.cfi_offset 24, -10
	push r25
.LCFI37:
	.cfi_def_cfa_offset 12
	.cfi_offset 25, -11
	push r26
.LCFI38:
	.cfi_def_cfa_offset 13
	.cfi_offset 26, -12
	push r27
.LCFI39:
	.cfi_def_cfa_offset 14
	.cfi_offset 27, -13
	push r30
.LCFI40:
	.cfi_def_cfa_offset 15
	.cfi_offset 30, -14
	push r31
.LCFI41:
	.cfi_def_cfa_offset 16
	.cfi_offset 31, -15
/* prologue: Signal */
/* frame size = 0 */
/* stack size = 15 */
.L__stack_usage = 15
	.loc 1 64 0
	lds r30,CP_TIMER2_Overflow_User_ptr
	lds r31,CP_TIMER2_Overflow_User_ptr+1
	sbiw r30,0
	breq .L32
	.loc 1 66 0
	icall
.LVL6:
.L32:
/* epilogue start */
	.loc 1 68 0
	pop r31
	pop r30
	pop r27
	pop r26
	pop r25
	pop r24
	pop r23
	pop r22
	pop r21
	pop r20
	pop r19
	pop r18
	pop r0
	out __SREG__,r0
	pop r0
	pop r1
	reti
	.cfi_endproc
.LFE6:
	.size	__vector_5, .-__vector_5
	.section	.text.__vector_4,"ax",@progbits
.global	__vector_4
	.type	__vector_4, @function
__vector_4:
.LFB7:
	.loc 1 70 0
	.cfi_startproc
	push r1
.LCFI42:
	.cfi_def_cfa_offset 3
	.cfi_offset 1, -2
	push r0
.LCFI43:
	.cfi_def_cfa_offset 4
	.cfi_offset 0, -3
	in r0,__SREG__
	push r0
	clr __zero_reg__
	push r18
.LCFI44:
	.cfi_def_cfa_offset 5
	.cfi_offset 18, -4
	push r19
.LCFI45:
	.cfi_def_cfa_offset 6
	.cfi_offset 19, -5
	push r20
.LCFI46:
	.cfi_def_cfa_offset 7
	.cfi_offset 20, -6
	push r21
.LCFI47:
	.cfi_def_cfa_offset 8
	.cfi_offset 21, -7
	push r22
.LCFI48:
	.cfi_def_cfa_offset 9
	.cfi_offset 22, -8
	push r23
.LCFI49:
	.cfi_def_cfa_offset 10
	.cfi_offset 23, -9
	push r24
.LCFI50:
	.cfi_def_cfa_offset 11
	.cfi_offset 24, -10
	push r25
.LCFI51:
	.cfi_def_cfa_offset 12
	.cfi_offset 25, -11
	push r26
.LCFI52:
	.cfi_def_cfa_offset 13
	.cfi_offset 26, -12
	push r27
.LCFI53:
	.cfi_def_cfa_offset 14
	.cfi_offset 27, -13
	push r30
.LCFI54:
	.cfi_def_cfa_offset 15
	.cfi_offset 30, -14
	push r31
.LCFI55:
	.cfi_def_cfa_offset 16
	.cfi_offset 31, -15
/* prologue: Signal */
/* frame size = 0 */
/* stack size = 15 */
.L__stack_usage = 15
	.loc 1 71 0
	lds r30,CP_TIMER2_CompareMatch_User_ptr
	lds r31,CP_TIMER2_CompareMatch_User_ptr+1
	sbiw r30,0
	breq .L37
	.loc 1 73 0
	icall
.LVL7:
.L37:
/* epilogue start */
	.loc 1 75 0
	pop r31
	pop r30
	pop r27
	pop r26
	pop r25
	pop r24
	pop r23
	pop r22
	pop r21
	pop r20
	pop r19
	pop r18
	pop r0
	out __SREG__,r0
	pop r0
	pop r1
	reti
	.cfi_endproc
.LFE7:
	.size	__vector_4, .-__vector_4
	.section	.text.TIMER_Init,"ax",@progbits
.global	TIMER_Init
	.type	TIMER_Init, @function
TIMER_Init:
.LFB8:
	.loc 1 77 0
	.cfi_startproc
.LVL8:
	push r16
.LCFI56:
	.cfi_def_cfa_offset 3
	.cfi_offset 16, -2
	push r17
.LCFI57:
	.cfi_def_cfa_offset 4
	.cfi_offset 17, -3
	push r28
.LCFI58:
	.cfi_def_cfa_offset 5
	.cfi_offset 28, -4
	push r29
.LCFI59:
	.cfi_def_cfa_offset 6
	.cfi_offset 29, -5
	rcall .
	rcall .
	rcall .
.LCFI60:
	.cfi_def_cfa_offset 12
	in r28,__SP_L__
	in r29,__SP_H__
.LCFI61:
	.cfi_def_cfa_register 28
/* prologue: function */
/* frame size = 6 */
/* stack size = 10 */
.L__stack_usage = 10
	mov r25,r20
	std Y+1,r20
	mov r30,r21
	std Y+2,r21
	mov r20,r22
	std Y+3,r22
	mov r19,r23
	std Y+4,r23
	std Y+5,r24
.LVL9:
	.loc 1 82 0
	tst r25
	breq .L44
	cpi r25,lo8(1)
	brne .L42
	subi r30,lo8(-(-1))
	cpi r30,lo8(3)
	brlo .L91
	ldi r17,0
.LVL10:
	.loc 1 224 0
	ldi r21,0
.LVL11:
	cpi r20,11
	cpc r21,__zero_reg__
	brsh .L67
.L93:
	movw r30,r20
	subi r30,lo8(-(gs(.L69)))
	sbci r31,hi8(-(gs(.L69)))
	jmp __tablejump2__
.LVL12:
	.section	.progmem.gcc_sw_table.TIMER_Init,"a",@progbits
	.p2align	1
.L69:
	.word gs(.L68)
	.word gs(.L70)
	.word gs(.L71)
	.word gs(.L72)
	.word gs(.L73)
	.word gs(.L74)
	.word gs(.L75)
	.word gs(.L76)
	.word gs(.L67)
	.word gs(.L67)
	.word gs(.L77)
	.section	.text.TIMER_Init
.LVL13:
.L85:
	.loc 1 309 0
	ldi r20,0
	ldi r22,lo8(7)
	ldi r24,lo8(48)
	ldi r25,0
	std Y+6,r18
	call GPIO_Pin_Configuration
.LVL14:
	.loc 1 310 0
	andi r17,lo8(-17)
.LVL15:
	.loc 1 311 0
	ori r17,lo8(32)
.LVL16:
	.loc 1 312 0
	ldd r18,Y+6
.L81:
	.loc 1 321 0
	out 0x25,r17
	.loc 1 322 0
	out 0x39,r16
	.loc 1 323 0
	out 0x23,r18
.LVL17:
.L42:
/* epilogue start */
	.loc 1 326 0
	adiw r28,6
	in __tmp_reg__,__SREG__
	cli
	out __SP_H__,r29
	out __SREG__,__tmp_reg__
	out __SP_L__,r28
	pop r29
	pop r28
	pop r17
	pop r16
	ret
.LVL18:
.L44:
	subi r30,lo8(-(-1))
	cpi r30,lo8(3)
	brlo .L92
	ldi r17,0
.LVL19:
	.loc 1 106 0
	ldi r21,0
.LVL20:
	cpi r20,10
	cpc r21,__zero_reg__
	brsh .L47
.L94:
	movw r30,r20
	subi r30,lo8(-(gs(.L49)))
	sbci r31,hi8(-(gs(.L49)))
	jmp __tablejump2__
.LVL21:
	.section	.progmem.gcc_sw_table.TIMER_Init
	.p2align	1
.L49:
	.word gs(.L48)
	.word gs(.L50)
	.word gs(.L51)
	.word gs(.L47)
	.word gs(.L52)
	.word gs(.L47)
	.word gs(.L53)
	.word gs(.L54)
	.word gs(.L55)
	.word gs(.L56)
	.section	.text.TIMER_Init
.LVL22:
.L91:
	ldi r31,0
	subi r30,lo8(-(CSWTCH.18))
	sbci r31,hi8(-(CSWTCH.18))
	ld r17,Z
.LVL23:
	.loc 1 224 0
	ldi r21,0
.LVL24:
	cpi r20,11
	cpc r21,__zero_reg__
	brlo .L93
.LVL25:
.L67:
	.loc 1 275 0
	in r25,__SREG__
	ori r25,lo8(-128)
	out __SREG__,r25
	.loc 1 277 0
	cpi r19,lo8(1)
	brne .+2
	rjmp .L90
	cpi r19,lo8(2)
	brne .+2
	rjmp .L80
	.loc 1 80 0
	ldi r16,0
.LVL26:
.L79:
	.loc 1 295 0
	ldi r25,0
	cpi r24,8
	cpc r25,__zero_reg__
	brsh .L81
	movw r30,r24
	subi r30,lo8(-(gs(.L83)))
	sbci r31,hi8(-(gs(.L83)))
	jmp __tablejump2__
.LVL27:
	.section	.progmem.gcc_sw_table.TIMER_Init
	.p2align	1
.L83:
	.word gs(.L82)
	.word gs(.L84)
	.word gs(.L85)
	.word gs(.L86)
	.word gs(.L85)
	.word gs(.L86)
	.word gs(.L85)
	.word gs(.L86)
	.section	.text.TIMER_Init
.LVL28:
.L92:
	ldi r31,0
	subi r30,lo8(-(CSWTCH.17))
	sbci r31,hi8(-(CSWTCH.17))
	ld r17,Z
.LVL29:
	.loc 1 106 0
	ldi r21,0
.LVL30:
	cpi r20,10
	cpc r21,__zero_reg__
	brlo .L94
.LVL31:
.L47:
	.loc 1 152 0
	in r25,__SREG__
	ori r25,lo8(-128)
	out __SREG__,r25
.LVL32:
	.loc 1 154 0
	cpi r19,lo8(1)
	brne .+2
	rjmp .L88
	cpi r19,lo8(2)
	brne .+2
	rjmp .L59
	.loc 1 80 0
	ldi r16,0
.LVL33:
.L58:
	.loc 1 172 0
	ldi r25,0
	cpi r24,8
	cpc r25,__zero_reg__
	brsh .L60
	movw r30,r24
	subi r30,lo8(-(gs(.L62)))
	sbci r31,hi8(-(gs(.L62)))
	jmp __tablejump2__
.LVL34:
	.section	.progmem.gcc_sw_table.TIMER_Init
	.p2align	1
.L62:
	.word gs(.L61)
	.word gs(.L63)
	.word gs(.L64)
	.word gs(.L65)
	.word gs(.L64)
	.word gs(.L65)
	.word gs(.L64)
	.word gs(.L65)
	.section	.text.TIMER_Init
.L64:
	.loc 1 186 0
	ldi r20,0
	ldi r22,lo8(3)
	ldi r24,lo8(54)
	ldi r25,0
	std Y+6,r18
	call GPIO_Pin_Configuration
.LVL35:
	.loc 1 187 0
	andi r17,lo8(-17)
.LVL36:
	.loc 1 188 0
	ori r17,lo8(32)
.LVL37:
	.loc 1 189 0
	ldd r18,Y+6
.L60:
	.loc 1 198 0
	out 0x33,r17
	.loc 1 199 0
	out 0x39,r16
	.loc 1 200 0
	out 0x3c,r18
	.loc 1 201 0
	rjmp .L42
.LVL38:
.L61:
	.loc 1 176 0
	andi r17,lo8(-49)
.LVL39:
	.loc 1 177 0
	rjmp .L60
.L65:
	.loc 1 193 0
	ldi r20,0
	ldi r22,lo8(3)
	ldi r24,lo8(54)
	ldi r25,0
	std Y+6,r18
	call GPIO_Pin_Configuration
.LVL40:
	.loc 1 195 0
	ori r17,lo8(48)
.LVL41:
	ldd r18,Y+6
	.loc 1 196 0
	rjmp .L60
.LVL42:
.L63:
	.loc 1 179 0
	ldi r20,0
	ldi r22,lo8(3)
	ldi r24,lo8(54)
	ldi r25,0
	std Y+6,r18
	call GPIO_Pin_Configuration
.LVL43:
	.loc 1 181 0
	andi r17,lo8(-33)
.LVL44:
	ori r17,lo8(16)
.LVL45:
	.loc 1 182 0
	ldd r18,Y+6
	rjmp .L60
.LVL46:
.L84:
	.loc 1 302 0
	ldi r20,0
	ldi r22,lo8(7)
	ldi r24,lo8(48)
	ldi r25,0
	std Y+6,r18
	call GPIO_Pin_Configuration
.LVL47:
	.loc 1 304 0
	andi r17,lo8(-33)
.LVL48:
	ori r17,lo8(16)
.LVL49:
	.loc 1 305 0
	ldd r18,Y+6
	rjmp .L81
.LVL50:
.L86:
	.loc 1 316 0
	ldi r20,0
	ldi r22,lo8(7)
	ldi r24,lo8(48)
	ldi r25,0
	std Y+6,r18
	call GPIO_Pin_Configuration
.LVL51:
	.loc 1 318 0
	ori r17,lo8(48)
.LVL52:
	ldd r18,Y+6
	.loc 1 319 0
	rjmp .L81
.LVL53:
.L82:
	.loc 1 299 0
	andi r17,lo8(-49)
.LVL54:
	.loc 1 300 0
	rjmp .L81
.LVL55:
.L80:
	.loc 1 285 0
	ldi r16,lo8(-128)
	.loc 1 286 0
	rjmp .L79
.LVL56:
.L90:
	.loc 1 281 0
	ldi r16,lo8(64)
	rjmp .L79
.L59:
.LVL57:
	.loc 1 162 0
	ldi r16,lo8(2)
	.loc 1 163 0
	rjmp .L58
.LVL58:
.L88:
	.loc 1 158 0
	ldi r16,lo8(1)
	rjmp .L58
.LVL59:
.L56:
	.loc 1 147 0
	ori r17,lo8(7)
.LVL60:
	.loc 1 148 0
	rjmp .L47
.L55:
	.loc 1 140 0
	andi r17,lo8(-2)
.LVL61:
	.loc 1 142 0
	ori r17,lo8(6)
.LVL62:
	.loc 1 143 0
	rjmp .L47
.L54:
.LVL63:
	.loc 1 136 0
	andi r17,lo8(-3)
.LVL64:
	.loc 1 137 0
	ori r17,lo8(5)
.LVL65:
	.loc 1 138 0
	rjmp .L47
.L53:
.LVL66:
	.loc 1 130 0
	andi r17,lo8(-4)
.LVL67:
	.loc 1 131 0
	ori r17,lo8(4)
.LVL68:
	.loc 1 132 0
	rjmp .L47
.L52:
.LVL69:
	.loc 1 126 0
	andi r17,lo8(-5)
.LVL70:
	ori r17,lo8(3)
.LVL71:
	.loc 1 127 0
	rjmp .L47
.L51:
.LVL72:
	.loc 1 121 0
	andi r17,lo8(-6)
.LVL73:
	ori r17,lo8(2)
.LVL74:
	.loc 1 122 0
	rjmp .L47
.L50:
.LVL75:
	.loc 1 116 0
	andi r17,lo8(-7)
.LVL76:
	ori r17,lo8(1)
.LVL77:
	.loc 1 117 0
	rjmp .L47
.L48:
.LVL78:
	.loc 1 111 0
	andi r17,lo8(-8)
.LVL79:
	.loc 1 112 0
	rjmp .L47
.L77:
	.loc 1 237 0
	in r25,0x22
	ori r25,lo8(16)
	out 0x22,r25
.LVL80:
	.loc 1 239 0
	andi r17,lo8(-3)
.LVL81:
	.loc 1 240 0
	ori r17,lo8(5)
.LVL82:
	.loc 1 241 0
	rjmp .L67
.LVL83:
.L76:
	.loc 1 270 0
	ori r17,lo8(7)
.LVL84:
	.loc 1 271 0
	rjmp .L67
.L75:
	.loc 1 263 0
	andi r17,lo8(-2)
.LVL85:
	.loc 1 265 0
	ori r17,lo8(6)
.LVL86:
	.loc 1 266 0
	rjmp .L67
.L74:
.LVL87:
	.loc 1 259 0
	andi r17,lo8(-3)
.LVL88:
	.loc 1 260 0
	ori r17,lo8(5)
.LVL89:
	.loc 1 261 0
	rjmp .L67
.L73:
.LVL90:
	.loc 1 254 0
	andi r17,lo8(-4)
.LVL91:
	.loc 1 255 0
	ori r17,lo8(4)
.LVL92:
	.loc 1 256 0
	rjmp .L67
.L72:
.LVL93:
	.loc 1 250 0
	andi r17,lo8(-5)
.LVL94:
	ori r17,lo8(3)
.LVL95:
	.loc 1 251 0
	rjmp .L67
.L71:
.LVL96:
	.loc 1 245 0
	andi r17,lo8(-6)
.LVL97:
	ori r17,lo8(2)
.LVL98:
	.loc 1 246 0
	rjmp .L67
.L70:
.LVL99:
	.loc 1 234 0
	andi r17,lo8(-7)
.LVL100:
	ori r17,lo8(1)
.LVL101:
	.loc 1 235 0
	rjmp .L67
.L68:
.LVL102:
	.loc 1 229 0
	andi r17,lo8(-8)
.LVL103:
	.loc 1 230 0
	rjmp .L67
	.cfi_endproc
.LFE8:
	.size	TIMER_Init, .-TIMER_Init
	.section	.text.TIMER_Delay,"ax",@progbits
.global	TIMER_Delay
	.type	TIMER_Delay, @function
TIMER_Delay:
.LFB9:
	.loc 1 329 0
	.cfi_startproc
.LVL104:
	push r28
.LCFI62:
	.cfi_def_cfa_offset 3
	.cfi_offset 28, -2
	push r29
.LCFI63:
	.cfi_def_cfa_offset 4
	.cfi_offset 29, -3
	rcall .
	rcall .
	push __zero_reg__
.LCFI64:
	.cfi_def_cfa_offset 9
	in r28,__SP_L__
	in r29,__SP_H__
.LCFI65:
	.cfi_def_cfa_register 28
/* prologue: function */
/* frame size = 5 */
/* stack size = 7 */
.L__stack_usage = 7
	.loc 1 330 0
	tst r20
	breq .L97
	cpi r20,lo8(1)
	brne .L95
	.loc 1 336 0
	out 0x23,r18
.L95:
/* epilogue start */
	.loc 1 341 0
	pop __tmp_reg__
	pop __tmp_reg__
	pop __tmp_reg__
	pop __tmp_reg__
	pop __tmp_reg__
	pop r29
	pop r28
	ret
.L97:
	.loc 1 333 0
	out 0x3c,r18
/* epilogue start */
	.loc 1 341 0
	pop __tmp_reg__
	pop __tmp_reg__
	pop __tmp_reg__
	pop __tmp_reg__
	pop __tmp_reg__
	pop r29
	pop r28
	ret
	.cfi_endproc
.LFE9:
	.size	TIMER_Delay, .-TIMER_Delay
	.section	.rodata.CSWTCH.18,"a",@progbits
	.type	CSWTCH.18, @object
	.size	CSWTCH.18, 3
CSWTCH.18:
	.byte	8
	.byte	64
	.byte	72
	.section	.rodata.CSWTCH.17,"a",@progbits
	.type	CSWTCH.17, @object
	.size	CSWTCH.17, 3
CSWTCH.17:
	.byte	8
	.byte	64
	.byte	72
	.section	.bss.CP_TIMER2_CompareMatch_User_ptr,"aw",@nobits
	.type	CP_TIMER2_CompareMatch_User_ptr, @object
	.size	CP_TIMER2_CompareMatch_User_ptr, 2
CP_TIMER2_CompareMatch_User_ptr:
	.zero	2
	.section	.bss.CP_TIMER2_Overflow_User_ptr,"aw",@nobits
	.type	CP_TIMER2_Overflow_User_ptr, @object
	.size	CP_TIMER2_Overflow_User_ptr, 2
CP_TIMER2_Overflow_User_ptr:
	.zero	2
	.section	.bss.CP_TIMER0_CompareMatch_User_ptr,"aw",@nobits
	.type	CP_TIMER0_CompareMatch_User_ptr, @object
	.size	CP_TIMER0_CompareMatch_User_ptr, 2
CP_TIMER0_CompareMatch_User_ptr:
	.zero	2
	.section	.bss.CP_TIMER0_Overflow_User_ptr,"aw",@nobits
	.type	CP_TIMER0_Overflow_User_ptr, @object
	.size	CP_TIMER0_Overflow_User_ptr, 2
CP_TIMER0_Overflow_User_ptr:
	.zero	2
	.text
.Letext0:
	.file 2 "../Services/STD_Types.h"
	.file 3 "../Services/AVR_32_Registers.h"
	.file 4 "../MCAL/DIO/GPIO.h"
	.file 5 "../MCAL/Timer 0,2/Timer0.h"